
Sentry_uarm_2020_new_new.elf:     file format elf32-littlearm

Sections:
Idx Name          Size      VMA       LMA       File off  Algn
  0 .isr_vector   000001ac  08000000  08000000  00010000  2**0
                  CONTENTS, ALLOC, LOAD, READONLY, DATA
  1 .text         000043ec  080001b0  080001b0  000101b0  2**4
                  CONTENTS, ALLOC, LOAD, READONLY, CODE
  2 .rodata       00000224  0800459c  0800459c  0001459c  2**2
                  CONTENTS, ALLOC, LOAD, READONLY, DATA
  3 .ARM.extab    00000000  080047c0  080047c0  00020074  2**0
                  CONTENTS
  4 .ARM          00000008  080047c0  080047c0  000147c0  2**2
                  CONTENTS, ALLOC, LOAD, READONLY, DATA
  5 .preinit_array 00000000  080047c8  080047c8  00020074  2**0
                  CONTENTS, ALLOC, LOAD, DATA
  6 .init_array   00000004  080047c8  080047c8  000147c8  2**2
                  CONTENTS, ALLOC, LOAD, DATA
  7 .fini_array   00000004  080047cc  080047cc  000147cc  2**2
                  CONTENTS, ALLOC, LOAD, DATA
  8 .data         00000074  20000000  080047d0  00020000  2**2
                  CONTENTS, ALLOC, LOAD, DATA
  9 .bss          00004148  20000074  08004844  00020074  2**2
                  ALLOC
 10 ._user_heap_stack 00000604  200041bc  08004844  000241bc  2**0
                  ALLOC
 11 .ARM.attributes 00000030  00000000  00000000  00020074  2**0
                  CONTENTS, READONLY
 12 .comment      0000007b  00000000  00000000  000200a4  2**0
                  CONTENTS, READONLY
 13 .debug_frame  0000087c  00000000  00000000  00020120  2**2
                  CONTENTS, READONLY, DEBUGGING

Disassembly of section .text:

080001b0 <__do_global_dtors_aux>:
 80001b0:	b510      	push	{r4, lr}
 80001b2:	4c05      	ldr	r4, [pc, #20]	; (80001c8 <__do_global_dtors_aux+0x18>)
 80001b4:	7823      	ldrb	r3, [r4, #0]
 80001b6:	b933      	cbnz	r3, 80001c6 <__do_global_dtors_aux+0x16>
 80001b8:	4b04      	ldr	r3, [pc, #16]	; (80001cc <__do_global_dtors_aux+0x1c>)
 80001ba:	b113      	cbz	r3, 80001c2 <__do_global_dtors_aux+0x12>
 80001bc:	4804      	ldr	r0, [pc, #16]	; (80001d0 <__do_global_dtors_aux+0x20>)
 80001be:	f3af 8000 	nop.w
 80001c2:	2301      	movs	r3, #1
 80001c4:	7023      	strb	r3, [r4, #0]
 80001c6:	bd10      	pop	{r4, pc}
 80001c8:	20000074 	.word	0x20000074
 80001cc:	00000000 	.word	0x00000000
 80001d0:	08004584 	.word	0x08004584

080001d4 <frame_dummy>:
 80001d4:	b508      	push	{r3, lr}
 80001d6:	4b03      	ldr	r3, [pc, #12]	; (80001e4 <frame_dummy+0x10>)
 80001d8:	b11b      	cbz	r3, 80001e2 <frame_dummy+0xe>
 80001da:	4903      	ldr	r1, [pc, #12]	; (80001e8 <frame_dummy+0x14>)
 80001dc:	4803      	ldr	r0, [pc, #12]	; (80001ec <frame_dummy+0x18>)
 80001de:	f3af 8000 	nop.w
 80001e2:	bd08      	pop	{r3, pc}
 80001e4:	00000000 	.word	0x00000000
 80001e8:	20000078 	.word	0x20000078
 80001ec:	08004584 	.word	0x08004584

080001f0 <memchr>:
 80001f0:	f001 01ff 	and.w	r1, r1, #255	; 0xff
 80001f4:	2a10      	cmp	r2, #16
 80001f6:	db2b      	blt.n	8000250 <memchr+0x60>
 80001f8:	f010 0f07 	tst.w	r0, #7
 80001fc:	d008      	beq.n	8000210 <memchr+0x20>
 80001fe:	f810 3b01 	ldrb.w	r3, [r0], #1
 8000202:	3a01      	subs	r2, #1
 8000204:	428b      	cmp	r3, r1
 8000206:	d02d      	beq.n	8000264 <memchr+0x74>
 8000208:	f010 0f07 	tst.w	r0, #7
 800020c:	b342      	cbz	r2, 8000260 <memchr+0x70>
 800020e:	d1f6      	bne.n	80001fe <memchr+0xe>
 8000210:	b4f0      	push	{r4, r5, r6, r7}
 8000212:	ea41 2101 	orr.w	r1, r1, r1, lsl #8
 8000216:	ea41 4101 	orr.w	r1, r1, r1, lsl #16
 800021a:	f022 0407 	bic.w	r4, r2, #7
 800021e:	f07f 0700 	mvns.w	r7, #0
 8000222:	2300      	movs	r3, #0
 8000224:	e8f0 5602 	ldrd	r5, r6, [r0], #8
 8000228:	3c08      	subs	r4, #8
 800022a:	ea85 0501 	eor.w	r5, r5, r1
 800022e:	ea86 0601 	eor.w	r6, r6, r1
 8000232:	fa85 f547 	uadd8	r5, r5, r7
 8000236:	faa3 f587 	sel	r5, r3, r7
 800023a:	fa86 f647 	uadd8	r6, r6, r7
 800023e:	faa5 f687 	sel	r6, r5, r7
 8000242:	b98e      	cbnz	r6, 8000268 <memchr+0x78>
 8000244:	d1ee      	bne.n	8000224 <memchr+0x34>
 8000246:	bcf0      	pop	{r4, r5, r6, r7}
 8000248:	f001 01ff 	and.w	r1, r1, #255	; 0xff
 800024c:	f002 0207 	and.w	r2, r2, #7
 8000250:	b132      	cbz	r2, 8000260 <memchr+0x70>
 8000252:	f810 3b01 	ldrb.w	r3, [r0], #1
 8000256:	3a01      	subs	r2, #1
 8000258:	ea83 0301 	eor.w	r3, r3, r1
 800025c:	b113      	cbz	r3, 8000264 <memchr+0x74>
 800025e:	d1f8      	bne.n	8000252 <memchr+0x62>
 8000260:	2000      	movs	r0, #0
 8000262:	4770      	bx	lr
 8000264:	3801      	subs	r0, #1
 8000266:	4770      	bx	lr
 8000268:	2d00      	cmp	r5, #0
 800026a:	bf06      	itte	eq
 800026c:	4635      	moveq	r5, r6
 800026e:	3803      	subeq	r0, #3
 8000270:	3807      	subne	r0, #7
 8000272:	f015 0f01 	tst.w	r5, #1
 8000276:	d107      	bne.n	8000288 <memchr+0x98>
 8000278:	3001      	adds	r0, #1
 800027a:	f415 7f80 	tst.w	r5, #256	; 0x100
 800027e:	bf02      	ittt	eq
 8000280:	3001      	addeq	r0, #1
 8000282:	f415 3fc0 	tsteq.w	r5, #98304	; 0x18000
 8000286:	3001      	addeq	r0, #1
 8000288:	bcf0      	pop	{r4, r5, r6, r7}
 800028a:	3801      	subs	r0, #1
 800028c:	4770      	bx	lr
 800028e:	bf00      	nop

08000290 <__aeabi_drsub>:
 8000290:	f081 4100 	eor.w	r1, r1, #2147483648	; 0x80000000
 8000294:	e002      	b.n	800029c <__adddf3>
 8000296:	bf00      	nop

08000298 <__aeabi_dsub>:
 8000298:	f083 4300 	eor.w	r3, r3, #2147483648	; 0x80000000

0800029c <__adddf3>:
 800029c:	b530      	push	{r4, r5, lr}
 800029e:	ea4f 0441 	mov.w	r4, r1, lsl #1
 80002a2:	ea4f 0543 	mov.w	r5, r3, lsl #1
 80002a6:	ea94 0f05 	teq	r4, r5
 80002aa:	bf08      	it	eq
 80002ac:	ea90 0f02 	teqeq	r0, r2
 80002b0:	bf1f      	itttt	ne
 80002b2:	ea54 0c00 	orrsne.w	ip, r4, r0
 80002b6:	ea55 0c02 	orrsne.w	ip, r5, r2
 80002ba:	ea7f 5c64 	mvnsne.w	ip, r4, asr #21
 80002be:	ea7f 5c65 	mvnsne.w	ip, r5, asr #21
 80002c2:	f000 80e2 	beq.w	800048a <__adddf3+0x1ee>
 80002c6:	ea4f 5454 	mov.w	r4, r4, lsr #21
 80002ca:	ebd4 5555 	rsbs	r5, r4, r5, lsr #21
 80002ce:	bfb8      	it	lt
 80002d0:	426d      	neglt	r5, r5
 80002d2:	dd0c      	ble.n	80002ee <__adddf3+0x52>
 80002d4:	442c      	add	r4, r5
 80002d6:	ea80 0202 	eor.w	r2, r0, r2
 80002da:	ea81 0303 	eor.w	r3, r1, r3
 80002de:	ea82 0000 	eor.w	r0, r2, r0
 80002e2:	ea83 0101 	eor.w	r1, r3, r1
 80002e6:	ea80 0202 	eor.w	r2, r0, r2
 80002ea:	ea81 0303 	eor.w	r3, r1, r3
 80002ee:	2d36      	cmp	r5, #54	; 0x36
 80002f0:	bf88      	it	hi
 80002f2:	bd30      	pophi	{r4, r5, pc}
 80002f4:	f011 4f00 	tst.w	r1, #2147483648	; 0x80000000
 80002f8:	ea4f 3101 	mov.w	r1, r1, lsl #12
 80002fc:	f44f 1c80 	mov.w	ip, #1048576	; 0x100000
 8000300:	ea4c 3111 	orr.w	r1, ip, r1, lsr #12
 8000304:	d002      	beq.n	800030c <__adddf3+0x70>
 8000306:	4240      	negs	r0, r0
 8000308:	eb61 0141 	sbc.w	r1, r1, r1, lsl #1
 800030c:	f013 4f00 	tst.w	r3, #2147483648	; 0x80000000
 8000310:	ea4f 3303 	mov.w	r3, r3, lsl #12
 8000314:	ea4c 3313 	orr.w	r3, ip, r3, lsr #12
 8000318:	d002      	beq.n	8000320 <__adddf3+0x84>
 800031a:	4252      	negs	r2, r2
 800031c:	eb63 0343 	sbc.w	r3, r3, r3, lsl #1
 8000320:	ea94 0f05 	teq	r4, r5
 8000324:	f000 80a7 	beq.w	8000476 <__adddf3+0x1da>
 8000328:	f1a4 0401 	sub.w	r4, r4, #1
 800032c:	f1d5 0e20 	rsbs	lr, r5, #32
 8000330:	db0d      	blt.n	800034e <__adddf3+0xb2>
 8000332:	fa02 fc0e 	lsl.w	ip, r2, lr
 8000336:	fa22 f205 	lsr.w	r2, r2, r5
 800033a:	1880      	adds	r0, r0, r2
 800033c:	f141 0100 	adc.w	r1, r1, #0
 8000340:	fa03 f20e 	lsl.w	r2, r3, lr
 8000344:	1880      	adds	r0, r0, r2
 8000346:	fa43 f305 	asr.w	r3, r3, r5
 800034a:	4159      	adcs	r1, r3
 800034c:	e00e      	b.n	800036c <__adddf3+0xd0>
 800034e:	f1a5 0520 	sub.w	r5, r5, #32
 8000352:	f10e 0e20 	add.w	lr, lr, #32
 8000356:	2a01      	cmp	r2, #1
 8000358:	fa03 fc0e 	lsl.w	ip, r3, lr
 800035c:	bf28      	it	cs
 800035e:	f04c 0c02 	orrcs.w	ip, ip, #2
 8000362:	fa43 f305 	asr.w	r3, r3, r5
 8000366:	18c0      	adds	r0, r0, r3
 8000368:	eb51 71e3 	adcs.w	r1, r1, r3, asr #31
 800036c:	f001 4500 	and.w	r5, r1, #2147483648	; 0x80000000
 8000370:	d507      	bpl.n	8000382 <__adddf3+0xe6>
 8000372:	f04f 0e00 	mov.w	lr, #0
 8000376:	f1dc 0c00 	rsbs	ip, ip, #0
 800037a:	eb7e 0000 	sbcs.w	r0, lr, r0
 800037e:	eb6e 0101 	sbc.w	r1, lr, r1
 8000382:	f5b1 1f80 	cmp.w	r1, #1048576	; 0x100000
 8000386:	d31b      	bcc.n	80003c0 <__adddf3+0x124>
 8000388:	f5b1 1f00 	cmp.w	r1, #2097152	; 0x200000
 800038c:	d30c      	bcc.n	80003a8 <__adddf3+0x10c>
 800038e:	0849      	lsrs	r1, r1, #1
 8000390:	ea5f 0030 	movs.w	r0, r0, rrx
 8000394:	ea4f 0c3c 	mov.w	ip, ip, rrx
 8000398:	f104 0401 	add.w	r4, r4, #1
 800039c:	ea4f 5244 	mov.w	r2, r4, lsl #21
 80003a0:	f512 0f80 	cmn.w	r2, #4194304	; 0x400000
 80003a4:	f080 809a 	bcs.w	80004dc <__adddf3+0x240>
 80003a8:	f1bc 4f00 	cmp.w	ip, #2147483648	; 0x80000000
 80003ac:	bf08      	it	eq
 80003ae:	ea5f 0c50 	movseq.w	ip, r0, lsr #1
 80003b2:	f150 0000 	adcs.w	r0, r0, #0
 80003b6:	eb41 5104 	adc.w	r1, r1, r4, lsl #20
 80003ba:	ea41 0105 	orr.w	r1, r1, r5
 80003be:	bd30      	pop	{r4, r5, pc}
 80003c0:	ea5f 0c4c 	movs.w	ip, ip, lsl #1
 80003c4:	4140      	adcs	r0, r0
 80003c6:	eb41 0101 	adc.w	r1, r1, r1
 80003ca:	f411 1f80 	tst.w	r1, #1048576	; 0x100000
 80003ce:	f1a4 0401 	sub.w	r4, r4, #1
 80003d2:	d1e9      	bne.n	80003a8 <__adddf3+0x10c>
 80003d4:	f091 0f00 	teq	r1, #0
 80003d8:	bf04      	itt	eq
 80003da:	4601      	moveq	r1, r0
 80003dc:	2000      	moveq	r0, #0
 80003de:	fab1 f381 	clz	r3, r1
 80003e2:	bf08      	it	eq
 80003e4:	3320      	addeq	r3, #32
 80003e6:	f1a3 030b 	sub.w	r3, r3, #11
 80003ea:	f1b3 0220 	subs.w	r2, r3, #32
 80003ee:	da0c      	bge.n	800040a <__adddf3+0x16e>
 80003f0:	320c      	adds	r2, #12
 80003f2:	dd08      	ble.n	8000406 <__adddf3+0x16a>
 80003f4:	f102 0c14 	add.w	ip, r2, #20
 80003f8:	f1c2 020c 	rsb	r2, r2, #12
 80003fc:	fa01 f00c 	lsl.w	r0, r1, ip
 8000400:	fa21 f102 	lsr.w	r1, r1, r2
 8000404:	e00c      	b.n	8000420 <__adddf3+0x184>
 8000406:	f102 0214 	add.w	r2, r2, #20
 800040a:	bfd8      	it	le
 800040c:	f1c2 0c20 	rsble	ip, r2, #32
 8000410:	fa01 f102 	lsl.w	r1, r1, r2
 8000414:	fa20 fc0c 	lsr.w	ip, r0, ip
 8000418:	bfdc      	itt	le
 800041a:	ea41 010c 	orrle.w	r1, r1, ip
 800041e:	4090      	lslle	r0, r2
 8000420:	1ae4      	subs	r4, r4, r3
 8000422:	bfa2      	ittt	ge
 8000424:	eb01 5104 	addge.w	r1, r1, r4, lsl #20
 8000428:	4329      	orrge	r1, r5
 800042a:	bd30      	popge	{r4, r5, pc}
 800042c:	ea6f 0404 	mvn.w	r4, r4
 8000430:	3c1f      	subs	r4, #31
 8000432:	da1c      	bge.n	800046e <__adddf3+0x1d2>
 8000434:	340c      	adds	r4, #12
 8000436:	dc0e      	bgt.n	8000456 <__adddf3+0x1ba>
 8000438:	f104 0414 	add.w	r4, r4, #20
 800043c:	f1c4 0220 	rsb	r2, r4, #32
 8000440:	fa20 f004 	lsr.w	r0, r0, r4
 8000444:	fa01 f302 	lsl.w	r3, r1, r2
 8000448:	ea40 0003 	orr.w	r0, r0, r3
 800044c:	fa21 f304 	lsr.w	r3, r1, r4
 8000450:	ea45 0103 	orr.w	r1, r5, r3
 8000454:	bd30      	pop	{r4, r5, pc}
 8000456:	f1c4 040c 	rsb	r4, r4, #12
 800045a:	f1c4 0220 	rsb	r2, r4, #32
 800045e:	fa20 f002 	lsr.w	r0, r0, r2
 8000462:	fa01 f304 	lsl.w	r3, r1, r4
 8000466:	ea40 0003 	orr.w	r0, r0, r3
 800046a:	4629      	mov	r1, r5
 800046c:	bd30      	pop	{r4, r5, pc}
 800046e:	fa21 f004 	lsr.w	r0, r1, r4
 8000472:	4629      	mov	r1, r5
 8000474:	bd30      	pop	{r4, r5, pc}
 8000476:	f094 0f00 	teq	r4, #0
 800047a:	f483 1380 	eor.w	r3, r3, #1048576	; 0x100000
 800047e:	bf06      	itte	eq
 8000480:	f481 1180 	eoreq.w	r1, r1, #1048576	; 0x100000
 8000484:	3401      	addeq	r4, #1
 8000486:	3d01      	subne	r5, #1
 8000488:	e74e      	b.n	8000328 <__adddf3+0x8c>
 800048a:	ea7f 5c64 	mvns.w	ip, r4, asr #21
 800048e:	bf18      	it	ne
 8000490:	ea7f 5c65 	mvnsne.w	ip, r5, asr #21
 8000494:	d029      	beq.n	80004ea <__adddf3+0x24e>
 8000496:	ea94 0f05 	teq	r4, r5
 800049a:	bf08      	it	eq
 800049c:	ea90 0f02 	teqeq	r0, r2
 80004a0:	d005      	beq.n	80004ae <__adddf3+0x212>
 80004a2:	ea54 0c00 	orrs.w	ip, r4, r0
 80004a6:	bf04      	itt	eq
 80004a8:	4619      	moveq	r1, r3
 80004aa:	4610      	moveq	r0, r2
 80004ac:	bd30      	pop	{r4, r5, pc}
 80004ae:	ea91 0f03 	teq	r1, r3
 80004b2:	bf1e      	ittt	ne
 80004b4:	2100      	movne	r1, #0
 80004b6:	2000      	movne	r0, #0
 80004b8:	bd30      	popne	{r4, r5, pc}
 80004ba:	ea5f 5c54 	movs.w	ip, r4, lsr #21
 80004be:	d105      	bne.n	80004cc <__adddf3+0x230>
 80004c0:	0040      	lsls	r0, r0, #1
 80004c2:	4149      	adcs	r1, r1
 80004c4:	bf28      	it	cs
 80004c6:	f041 4100 	orrcs.w	r1, r1, #2147483648	; 0x80000000
 80004ca:	bd30      	pop	{r4, r5, pc}
 80004cc:	f514 0480 	adds.w	r4, r4, #4194304	; 0x400000
 80004d0:	bf3c      	itt	cc
 80004d2:	f501 1180 	addcc.w	r1, r1, #1048576	; 0x100000
 80004d6:	bd30      	popcc	{r4, r5, pc}
 80004d8:	f001 4500 	and.w	r5, r1, #2147483648	; 0x80000000
 80004dc:	f045 41fe 	orr.w	r1, r5, #2130706432	; 0x7f000000
 80004e0:	f441 0170 	orr.w	r1, r1, #15728640	; 0xf00000
 80004e4:	f04f 0000 	mov.w	r0, #0
 80004e8:	bd30      	pop	{r4, r5, pc}
 80004ea:	ea7f 5c64 	mvns.w	ip, r4, asr #21
 80004ee:	bf1a      	itte	ne
 80004f0:	4619      	movne	r1, r3
 80004f2:	4610      	movne	r0, r2
 80004f4:	ea7f 5c65 	mvnseq.w	ip, r5, asr #21
 80004f8:	bf1c      	itt	ne
 80004fa:	460b      	movne	r3, r1
 80004fc:	4602      	movne	r2, r0
 80004fe:	ea50 3401 	orrs.w	r4, r0, r1, lsl #12
 8000502:	bf06      	itte	eq
 8000504:	ea52 3503 	orrseq.w	r5, r2, r3, lsl #12
 8000508:	ea91 0f03 	teqeq	r1, r3
 800050c:	f441 2100 	orrne.w	r1, r1, #524288	; 0x80000
 8000510:	bd30      	pop	{r4, r5, pc}
 8000512:	bf00      	nop

08000514 <__aeabi_ui2d>:
 8000514:	f090 0f00 	teq	r0, #0
 8000518:	bf04      	itt	eq
 800051a:	2100      	moveq	r1, #0
 800051c:	4770      	bxeq	lr
 800051e:	b530      	push	{r4, r5, lr}
 8000520:	f44f 6480 	mov.w	r4, #1024	; 0x400
 8000524:	f104 0432 	add.w	r4, r4, #50	; 0x32
 8000528:	f04f 0500 	mov.w	r5, #0
 800052c:	f04f 0100 	mov.w	r1, #0
 8000530:	e750      	b.n	80003d4 <__adddf3+0x138>
 8000532:	bf00      	nop

08000534 <__aeabi_i2d>:
 8000534:	f090 0f00 	teq	r0, #0
 8000538:	bf04      	itt	eq
 800053a:	2100      	moveq	r1, #0
 800053c:	4770      	bxeq	lr
 800053e:	b530      	push	{r4, r5, lr}
 8000540:	f44f 6480 	mov.w	r4, #1024	; 0x400
 8000544:	f104 0432 	add.w	r4, r4, #50	; 0x32
 8000548:	f010 4500 	ands.w	r5, r0, #2147483648	; 0x80000000
 800054c:	bf48      	it	mi
 800054e:	4240      	negmi	r0, r0
 8000550:	f04f 0100 	mov.w	r1, #0
 8000554:	e73e      	b.n	80003d4 <__adddf3+0x138>
 8000556:	bf00      	nop

08000558 <__aeabi_f2d>:
 8000558:	0042      	lsls	r2, r0, #1
 800055a:	ea4f 01e2 	mov.w	r1, r2, asr #3
 800055e:	ea4f 0131 	mov.w	r1, r1, rrx
 8000562:	ea4f 7002 	mov.w	r0, r2, lsl #28
 8000566:	bf1f      	itttt	ne
 8000568:	f012 437f 	andsne.w	r3, r2, #4278190080	; 0xff000000
 800056c:	f093 4f7f 	teqne	r3, #4278190080	; 0xff000000
 8000570:	f081 5160 	eorne.w	r1, r1, #939524096	; 0x38000000
 8000574:	4770      	bxne	lr
 8000576:	f032 427f 	bics.w	r2, r2, #4278190080	; 0xff000000
 800057a:	bf08      	it	eq
 800057c:	4770      	bxeq	lr
 800057e:	f093 4f7f 	teq	r3, #4278190080	; 0xff000000
 8000582:	bf04      	itt	eq
 8000584:	f441 2100 	orreq.w	r1, r1, #524288	; 0x80000
 8000588:	4770      	bxeq	lr
 800058a:	b530      	push	{r4, r5, lr}
 800058c:	f44f 7460 	mov.w	r4, #896	; 0x380
 8000590:	f001 4500 	and.w	r5, r1, #2147483648	; 0x80000000
 8000594:	f021 4100 	bic.w	r1, r1, #2147483648	; 0x80000000
 8000598:	e71c      	b.n	80003d4 <__adddf3+0x138>
 800059a:	bf00      	nop

0800059c <__aeabi_ul2d>:
 800059c:	ea50 0201 	orrs.w	r2, r0, r1
 80005a0:	bf08      	it	eq
 80005a2:	4770      	bxeq	lr
 80005a4:	b530      	push	{r4, r5, lr}
 80005a6:	f04f 0500 	mov.w	r5, #0
 80005aa:	e00a      	b.n	80005c2 <__aeabi_l2d+0x16>

080005ac <__aeabi_l2d>:
 80005ac:	ea50 0201 	orrs.w	r2, r0, r1
 80005b0:	bf08      	it	eq
 80005b2:	4770      	bxeq	lr
 80005b4:	b530      	push	{r4, r5, lr}
 80005b6:	f011 4500 	ands.w	r5, r1, #2147483648	; 0x80000000
 80005ba:	d502      	bpl.n	80005c2 <__aeabi_l2d+0x16>
 80005bc:	4240      	negs	r0, r0
 80005be:	eb61 0141 	sbc.w	r1, r1, r1, lsl #1
 80005c2:	f44f 6480 	mov.w	r4, #1024	; 0x400
 80005c6:	f104 0432 	add.w	r4, r4, #50	; 0x32
 80005ca:	ea5f 5c91 	movs.w	ip, r1, lsr #22
 80005ce:	f43f aed8 	beq.w	8000382 <__adddf3+0xe6>
 80005d2:	f04f 0203 	mov.w	r2, #3
 80005d6:	ea5f 0cdc 	movs.w	ip, ip, lsr #3
 80005da:	bf18      	it	ne
 80005dc:	3203      	addne	r2, #3
 80005de:	ea5f 0cdc 	movs.w	ip, ip, lsr #3
 80005e2:	bf18      	it	ne
 80005e4:	3203      	addne	r2, #3
 80005e6:	eb02 02dc 	add.w	r2, r2, ip, lsr #3
 80005ea:	f1c2 0320 	rsb	r3, r2, #32
 80005ee:	fa00 fc03 	lsl.w	ip, r0, r3
 80005f2:	fa20 f002 	lsr.w	r0, r0, r2
 80005f6:	fa01 fe03 	lsl.w	lr, r1, r3
 80005fa:	ea40 000e 	orr.w	r0, r0, lr
 80005fe:	fa21 f102 	lsr.w	r1, r1, r2
 8000602:	4414      	add	r4, r2
 8000604:	e6bd      	b.n	8000382 <__adddf3+0xe6>
 8000606:	bf00      	nop

08000608 <__aeabi_uldivmod>:
 8000608:	b953      	cbnz	r3, 8000620 <__aeabi_uldivmod+0x18>
 800060a:	b94a      	cbnz	r2, 8000620 <__aeabi_uldivmod+0x18>
 800060c:	2900      	cmp	r1, #0
 800060e:	bf08      	it	eq
 8000610:	2800      	cmpeq	r0, #0
 8000612:	bf1c      	itt	ne
 8000614:	f04f 31ff 	movne.w	r1, #4294967295
 8000618:	f04f 30ff 	movne.w	r0, #4294967295
 800061c:	f000 b972 	b.w	8000904 <__aeabi_idiv0>
 8000620:	f1ad 0c08 	sub.w	ip, sp, #8
 8000624:	e96d ce04 	strd	ip, lr, [sp, #-16]!
 8000628:	f000 f806 	bl	8000638 <__udivmoddi4>
 800062c:	f8dd e004 	ldr.w	lr, [sp, #4]
 8000630:	e9dd 2302 	ldrd	r2, r3, [sp, #8]
 8000634:	b004      	add	sp, #16
 8000636:	4770      	bx	lr

08000638 <__udivmoddi4>:
 8000638:	e92d 47f0 	stmdb	sp!, {r4, r5, r6, r7, r8, r9, sl, lr}
 800063c:	9e08      	ldr	r6, [sp, #32]
 800063e:	4604      	mov	r4, r0
 8000640:	4688      	mov	r8, r1
 8000642:	2b00      	cmp	r3, #0
 8000644:	d14b      	bne.n	80006de <__udivmoddi4+0xa6>
 8000646:	428a      	cmp	r2, r1
 8000648:	4615      	mov	r5, r2
 800064a:	d967      	bls.n	800071c <__udivmoddi4+0xe4>
 800064c:	fab2 f282 	clz	r2, r2
 8000650:	b14a      	cbz	r2, 8000666 <__udivmoddi4+0x2e>
 8000652:	f1c2 0720 	rsb	r7, r2, #32
 8000656:	fa01 f302 	lsl.w	r3, r1, r2
 800065a:	fa20 f707 	lsr.w	r7, r0, r7
 800065e:	4095      	lsls	r5, r2
 8000660:	ea47 0803 	orr.w	r8, r7, r3
 8000664:	4094      	lsls	r4, r2
 8000666:	ea4f 4e15 	mov.w	lr, r5, lsr #16
 800066a:	0c23      	lsrs	r3, r4, #16
 800066c:	fbb8 f7fe 	udiv	r7, r8, lr
 8000670:	fa1f fc85 	uxth.w	ip, r5
 8000674:	fb0e 8817 	mls	r8, lr, r7, r8
 8000678:	ea43 4308 	orr.w	r3, r3, r8, lsl #16
 800067c:	fb07 f10c 	mul.w	r1, r7, ip
 8000680:	4299      	cmp	r1, r3
 8000682:	d909      	bls.n	8000698 <__udivmoddi4+0x60>
 8000684:	18eb      	adds	r3, r5, r3
 8000686:	f107 30ff 	add.w	r0, r7, #4294967295
 800068a:	f080 811b 	bcs.w	80008c4 <__udivmoddi4+0x28c>
 800068e:	4299      	cmp	r1, r3
 8000690:	f240 8118 	bls.w	80008c4 <__udivmoddi4+0x28c>
 8000694:	3f02      	subs	r7, #2
 8000696:	442b      	add	r3, r5
 8000698:	1a5b      	subs	r3, r3, r1
 800069a:	b2a4      	uxth	r4, r4
 800069c:	fbb3 f0fe 	udiv	r0, r3, lr
 80006a0:	fb0e 3310 	mls	r3, lr, r0, r3
 80006a4:	ea44 4403 	orr.w	r4, r4, r3, lsl #16
 80006a8:	fb00 fc0c 	mul.w	ip, r0, ip
 80006ac:	45a4      	cmp	ip, r4
 80006ae:	d909      	bls.n	80006c4 <__udivmoddi4+0x8c>
 80006b0:	192c      	adds	r4, r5, r4
 80006b2:	f100 33ff 	add.w	r3, r0, #4294967295
 80006b6:	f080 8107 	bcs.w	80008c8 <__udivmoddi4+0x290>
 80006ba:	45a4      	cmp	ip, r4
 80006bc:	f240 8104 	bls.w	80008c8 <__udivmoddi4+0x290>
 80006c0:	3802      	subs	r0, #2
 80006c2:	442c      	add	r4, r5
 80006c4:	ea40 4007 	orr.w	r0, r0, r7, lsl #16
 80006c8:	eba4 040c 	sub.w	r4, r4, ip
 80006cc:	2700      	movs	r7, #0
 80006ce:	b11e      	cbz	r6, 80006d8 <__udivmoddi4+0xa0>
 80006d0:	40d4      	lsrs	r4, r2
 80006d2:	2300      	movs	r3, #0
 80006d4:	e9c6 4300 	strd	r4, r3, [r6]
 80006d8:	4639      	mov	r1, r7
 80006da:	e8bd 87f0 	ldmia.w	sp!, {r4, r5, r6, r7, r8, r9, sl, pc}
 80006de:	428b      	cmp	r3, r1
 80006e0:	d909      	bls.n	80006f6 <__udivmoddi4+0xbe>
 80006e2:	2e00      	cmp	r6, #0
 80006e4:	f000 80eb 	beq.w	80008be <__udivmoddi4+0x286>
 80006e8:	2700      	movs	r7, #0
 80006ea:	e9c6 0100 	strd	r0, r1, [r6]
 80006ee:	4638      	mov	r0, r7
 80006f0:	4639      	mov	r1, r7
 80006f2:	e8bd 87f0 	ldmia.w	sp!, {r4, r5, r6, r7, r8, r9, sl, pc}
 80006f6:	fab3 f783 	clz	r7, r3
 80006fa:	2f00      	cmp	r7, #0
 80006fc:	d147      	bne.n	800078e <__udivmoddi4+0x156>
 80006fe:	428b      	cmp	r3, r1
 8000700:	d302      	bcc.n	8000708 <__udivmoddi4+0xd0>
 8000702:	4282      	cmp	r2, r0
 8000704:	f200 80fa 	bhi.w	80008fc <__udivmoddi4+0x2c4>
 8000708:	1a84      	subs	r4, r0, r2
 800070a:	eb61 0303 	sbc.w	r3, r1, r3
 800070e:	2001      	movs	r0, #1
 8000710:	4698      	mov	r8, r3
 8000712:	2e00      	cmp	r6, #0
 8000714:	d0e0      	beq.n	80006d8 <__udivmoddi4+0xa0>
 8000716:	e9c6 4800 	strd	r4, r8, [r6]
 800071a:	e7dd      	b.n	80006d8 <__udivmoddi4+0xa0>
 800071c:	b902      	cbnz	r2, 8000720 <__udivmoddi4+0xe8>
 800071e:	deff      	udf	#255	; 0xff
 8000720:	fab2 f282 	clz	r2, r2
 8000724:	2a00      	cmp	r2, #0
 8000726:	f040 808f 	bne.w	8000848 <__udivmoddi4+0x210>
 800072a:	1b49      	subs	r1, r1, r5
 800072c:	ea4f 4e15 	mov.w	lr, r5, lsr #16
 8000730:	fa1f f885 	uxth.w	r8, r5
 8000734:	2701      	movs	r7, #1
 8000736:	fbb1 fcfe 	udiv	ip, r1, lr
 800073a:	0c23      	lsrs	r3, r4, #16
 800073c:	fb0e 111c 	mls	r1, lr, ip, r1
 8000740:	ea43 4301 	orr.w	r3, r3, r1, lsl #16
 8000744:	fb08 f10c 	mul.w	r1, r8, ip
 8000748:	4299      	cmp	r1, r3
 800074a:	d907      	bls.n	800075c <__udivmoddi4+0x124>
 800074c:	18eb      	adds	r3, r5, r3
 800074e:	f10c 30ff 	add.w	r0, ip, #4294967295
 8000752:	d202      	bcs.n	800075a <__udivmoddi4+0x122>
 8000754:	4299      	cmp	r1, r3
 8000756:	f200 80cd 	bhi.w	80008f4 <__udivmoddi4+0x2bc>
 800075a:	4684      	mov	ip, r0
 800075c:	1a59      	subs	r1, r3, r1
 800075e:	b2a3      	uxth	r3, r4
 8000760:	fbb1 f0fe 	udiv	r0, r1, lr
 8000764:	fb0e 1410 	mls	r4, lr, r0, r1
 8000768:	ea43 4404 	orr.w	r4, r3, r4, lsl #16
 800076c:	fb08 f800 	mul.w	r8, r8, r0
 8000770:	45a0      	cmp	r8, r4
 8000772:	d907      	bls.n	8000784 <__udivmoddi4+0x14c>
 8000774:	192c      	adds	r4, r5, r4
 8000776:	f100 33ff 	add.w	r3, r0, #4294967295
 800077a:	d202      	bcs.n	8000782 <__udivmoddi4+0x14a>
 800077c:	45a0      	cmp	r8, r4
 800077e:	f200 80b6 	bhi.w	80008ee <__udivmoddi4+0x2b6>
 8000782:	4618      	mov	r0, r3
 8000784:	eba4 0408 	sub.w	r4, r4, r8
 8000788:	ea40 400c 	orr.w	r0, r0, ip, lsl #16
 800078c:	e79f      	b.n	80006ce <__udivmoddi4+0x96>
 800078e:	f1c7 0c20 	rsb	ip, r7, #32
 8000792:	40bb      	lsls	r3, r7
 8000794:	fa22 fe0c 	lsr.w	lr, r2, ip
 8000798:	ea4e 0e03 	orr.w	lr, lr, r3
 800079c:	fa01 f407 	lsl.w	r4, r1, r7
 80007a0:	fa20 f50c 	lsr.w	r5, r0, ip
 80007a4:	fa21 f30c 	lsr.w	r3, r1, ip
 80007a8:	ea4f 481e 	mov.w	r8, lr, lsr #16
 80007ac:	4325      	orrs	r5, r4
 80007ae:	fbb3 f9f8 	udiv	r9, r3, r8
 80007b2:	0c2c      	lsrs	r4, r5, #16
 80007b4:	fb08 3319 	mls	r3, r8, r9, r3
 80007b8:	fa1f fa8e 	uxth.w	sl, lr
 80007bc:	ea44 4303 	orr.w	r3, r4, r3, lsl #16
 80007c0:	fb09 f40a 	mul.w	r4, r9, sl
 80007c4:	429c      	cmp	r4, r3
 80007c6:	fa02 f207 	lsl.w	r2, r2, r7
 80007ca:	fa00 f107 	lsl.w	r1, r0, r7
 80007ce:	d90b      	bls.n	80007e8 <__udivmoddi4+0x1b0>
 80007d0:	eb1e 0303 	adds.w	r3, lr, r3
 80007d4:	f109 30ff 	add.w	r0, r9, #4294967295
 80007d8:	f080 8087 	bcs.w	80008ea <__udivmoddi4+0x2b2>
 80007dc:	429c      	cmp	r4, r3
 80007de:	f240 8084 	bls.w	80008ea <__udivmoddi4+0x2b2>
 80007e2:	f1a9 0902 	sub.w	r9, r9, #2
 80007e6:	4473      	add	r3, lr
 80007e8:	1b1b      	subs	r3, r3, r4
 80007ea:	b2ad      	uxth	r5, r5
 80007ec:	fbb3 f0f8 	udiv	r0, r3, r8
 80007f0:	fb08 3310 	mls	r3, r8, r0, r3
 80007f4:	ea45 4403 	orr.w	r4, r5, r3, lsl #16
 80007f8:	fb00 fa0a 	mul.w	sl, r0, sl
 80007fc:	45a2      	cmp	sl, r4
 80007fe:	d908      	bls.n	8000812 <__udivmoddi4+0x1da>
 8000800:	eb1e 0404 	adds.w	r4, lr, r4
 8000804:	f100 33ff 	add.w	r3, r0, #4294967295
 8000808:	d26b      	bcs.n	80008e2 <__udivmoddi4+0x2aa>
 800080a:	45a2      	cmp	sl, r4
 800080c:	d969      	bls.n	80008e2 <__udivmoddi4+0x2aa>
 800080e:	3802      	subs	r0, #2
 8000810:	4474      	add	r4, lr
 8000812:	ea40 4009 	orr.w	r0, r0, r9, lsl #16
 8000816:	fba0 8902 	umull	r8, r9, r0, r2
 800081a:	eba4 040a 	sub.w	r4, r4, sl
 800081e:	454c      	cmp	r4, r9
 8000820:	46c2      	mov	sl, r8
 8000822:	464b      	mov	r3, r9
 8000824:	d354      	bcc.n	80008d0 <__udivmoddi4+0x298>
 8000826:	d051      	beq.n	80008cc <__udivmoddi4+0x294>
 8000828:	2e00      	cmp	r6, #0
 800082a:	d069      	beq.n	8000900 <__udivmoddi4+0x2c8>
 800082c:	ebb1 050a 	subs.w	r5, r1, sl
 8000830:	eb64 0403 	sbc.w	r4, r4, r3
 8000834:	fa04 fc0c 	lsl.w	ip, r4, ip
 8000838:	40fd      	lsrs	r5, r7
 800083a:	40fc      	lsrs	r4, r7
 800083c:	ea4c 0505 	orr.w	r5, ip, r5
 8000840:	e9c6 5400 	strd	r5, r4, [r6]
 8000844:	2700      	movs	r7, #0
 8000846:	e747      	b.n	80006d8 <__udivmoddi4+0xa0>
 8000848:	f1c2 0320 	rsb	r3, r2, #32
 800084c:	fa20 f703 	lsr.w	r7, r0, r3
 8000850:	4095      	lsls	r5, r2
 8000852:	fa01 f002 	lsl.w	r0, r1, r2
 8000856:	fa21 f303 	lsr.w	r3, r1, r3
 800085a:	ea4f 4e15 	mov.w	lr, r5, lsr #16
 800085e:	4338      	orrs	r0, r7
 8000860:	0c01      	lsrs	r1, r0, #16
 8000862:	fbb3 f7fe 	udiv	r7, r3, lr
 8000866:	fa1f f885 	uxth.w	r8, r5
 800086a:	fb0e 3317 	mls	r3, lr, r7, r3
 800086e:	ea41 4103 	orr.w	r1, r1, r3, lsl #16
 8000872:	fb07 f308 	mul.w	r3, r7, r8
 8000876:	428b      	cmp	r3, r1
 8000878:	fa04 f402 	lsl.w	r4, r4, r2
 800087c:	d907      	bls.n	800088e <__udivmoddi4+0x256>
 800087e:	1869      	adds	r1, r5, r1
 8000880:	f107 3cff 	add.w	ip, r7, #4294967295
 8000884:	d22f      	bcs.n	80008e6 <__udivmoddi4+0x2ae>
 8000886:	428b      	cmp	r3, r1
 8000888:	d92d      	bls.n	80008e6 <__udivmoddi4+0x2ae>
 800088a:	3f02      	subs	r7, #2
 800088c:	4429      	add	r1, r5
 800088e:	1acb      	subs	r3, r1, r3
 8000890:	b281      	uxth	r1, r0
 8000892:	fbb3 f0fe 	udiv	r0, r3, lr
 8000896:	fb0e 3310 	mls	r3, lr, r0, r3
 800089a:	ea41 4103 	orr.w	r1, r1, r3, lsl #16
 800089e:	fb00 f308 	mul.w	r3, r0, r8
 80008a2:	428b      	cmp	r3, r1
 80008a4:	d907      	bls.n	80008b6 <__udivmoddi4+0x27e>
 80008a6:	1869      	adds	r1, r5, r1
 80008a8:	f100 3cff 	add.w	ip, r0, #4294967295
 80008ac:	d217      	bcs.n	80008de <__udivmoddi4+0x2a6>
 80008ae:	428b      	cmp	r3, r1
 80008b0:	d915      	bls.n	80008de <__udivmoddi4+0x2a6>
 80008b2:	3802      	subs	r0, #2
 80008b4:	4429      	add	r1, r5
 80008b6:	1ac9      	subs	r1, r1, r3
 80008b8:	ea40 4707 	orr.w	r7, r0, r7, lsl #16
 80008bc:	e73b      	b.n	8000736 <__udivmoddi4+0xfe>
 80008be:	4637      	mov	r7, r6
 80008c0:	4630      	mov	r0, r6
 80008c2:	e709      	b.n	80006d8 <__udivmoddi4+0xa0>
 80008c4:	4607      	mov	r7, r0
 80008c6:	e6e7      	b.n	8000698 <__udivmoddi4+0x60>
 80008c8:	4618      	mov	r0, r3
 80008ca:	e6fb      	b.n	80006c4 <__udivmoddi4+0x8c>
 80008cc:	4541      	cmp	r1, r8
 80008ce:	d2ab      	bcs.n	8000828 <__udivmoddi4+0x1f0>
 80008d0:	ebb8 0a02 	subs.w	sl, r8, r2
 80008d4:	eb69 020e 	sbc.w	r2, r9, lr
 80008d8:	3801      	subs	r0, #1
 80008da:	4613      	mov	r3, r2
 80008dc:	e7a4      	b.n	8000828 <__udivmoddi4+0x1f0>
 80008de:	4660      	mov	r0, ip
 80008e0:	e7e9      	b.n	80008b6 <__udivmoddi4+0x27e>
 80008e2:	4618      	mov	r0, r3
 80008e4:	e795      	b.n	8000812 <__udivmoddi4+0x1da>
 80008e6:	4667      	mov	r7, ip
 80008e8:	e7d1      	b.n	800088e <__udivmoddi4+0x256>
 80008ea:	4681      	mov	r9, r0
 80008ec:	e77c      	b.n	80007e8 <__udivmoddi4+0x1b0>
 80008ee:	3802      	subs	r0, #2
 80008f0:	442c      	add	r4, r5
 80008f2:	e747      	b.n	8000784 <__udivmoddi4+0x14c>
 80008f4:	f1ac 0c02 	sub.w	ip, ip, #2
 80008f8:	442b      	add	r3, r5
 80008fa:	e72f      	b.n	800075c <__udivmoddi4+0x124>
 80008fc:	4638      	mov	r0, r7
 80008fe:	e708      	b.n	8000712 <__udivmoddi4+0xda>
 8000900:	4637      	mov	r7, r6
 8000902:	e6e9      	b.n	80006d8 <__udivmoddi4+0xa0>

08000904 <__aeabi_idiv0>:
 8000904:	4770      	bx	lr
 8000906:	bf00      	nop

08000908 <Chassis_Task_Func>:
 8000908:	e92d 43f8 	stmdb	sp!, {r3, r4, r5, r6, r7, r8, r9, lr}
 800090c:	a710      	add	r7, pc, #64	; (adr r7, 8000950 <Chassis_Task_Func+0x48>)
 800090e:	e9d7 6700 	ldrd	r6, r7, [r7]
 8000912:	f8df 9044 	ldr.w	r9, [pc, #68]	; 8000958 <Chassis_Task_Func+0x50>
 8000916:	f8df 8044 	ldr.w	r8, [pc, #68]	; 800095c <Chassis_Task_Func+0x54>
 800091a:	2400      	movs	r4, #0
 800091c:	2500      	movs	r5, #0
 800091e:	4648      	mov	r0, r9
 8000920:	f002 ff5c 	bl	80037dc <puts>
 8000924:	4622      	mov	r2, r4
 8000926:	462b      	mov	r3, r5
 8000928:	4640      	mov	r0, r8
 800092a:	f002 fee3 	bl	80036f4 <iprintf>
 800092e:	4632      	mov	r2, r6
 8000930:	463b      	mov	r3, r7
 8000932:	4620      	mov	r0, r4
 8000934:	4629      	mov	r1, r5
 8000936:	f7ff fcb1 	bl	800029c <__adddf3>
 800093a:	4604      	mov	r4, r0
 800093c:	f44f 70fa 	mov.w	r0, #500	; 0x1f4
 8000940:	460d      	mov	r5, r1
 8000942:	f002 f87a 	bl	8002a3a <osDelay>
 8000946:	2001      	movs	r0, #1
 8000948:	f002 f877 	bl	8002a3a <osDelay>
 800094c:	e7e7      	b.n	800091e <Chassis_Task_Func+0x16>
 800094e:	bf00      	nop
 8000950:	9999999a 	.word	0x9999999a
 8000954:	3fb99999 	.word	0x3fb99999
 8000958:	0800460c 	.word	0x0800460c
 800095c:	0800461e 	.word	0x0800461e

08000960 <CAN_Send_Gimbal>:
 8000960:	b537      	push	{r0, r1, r2, r4, r5, lr}
 8000962:	460c      	mov	r4, r1
 8000964:	490c      	ldr	r1, [pc, #48]	; (8000998 <CAN_Send_Gimbal+0x38>)
 8000966:	2208      	movs	r2, #8
 8000968:	610a      	str	r2, [r1, #16]
 800096a:	4a0c      	ldr	r2, [pc, #48]	; (800099c <CAN_Send_Gimbal+0x3c>)
 800096c:	f240 13ff 	movw	r3, #511	; 0x1ff
 8000970:	600b      	str	r3, [r1, #0]
 8000972:	1205      	asrs	r5, r0, #8
 8000974:	2300      	movs	r3, #0
 8000976:	7050      	strb	r0, [r2, #1]
 8000978:	1220      	asrs	r0, r4, #8
 800097a:	e9c1 3302 	strd	r3, r3, [r1, #8]
 800097e:	7090      	strb	r0, [r2, #2]
 8000980:	7113      	strb	r3, [r2, #4]
 8000982:	7153      	strb	r3, [r2, #5]
 8000984:	7193      	strb	r3, [r2, #6]
 8000986:	71d3      	strb	r3, [r2, #7]
 8000988:	4805      	ldr	r0, [pc, #20]	; (80009a0 <CAN_Send_Gimbal+0x40>)
 800098a:	7015      	strb	r5, [r2, #0]
 800098c:	ab01      	add	r3, sp, #4
 800098e:	70d4      	strb	r4, [r2, #3]
 8000990:	f000 fe35 	bl	80015fe <HAL_CAN_AddTxMessage>
 8000994:	b003      	add	sp, #12
 8000996:	bd30      	pop	{r4, r5, pc}
 8000998:	20000098 	.word	0x20000098
 800099c:	20000090 	.word	0x20000090
 80009a0:	200040c0 	.word	0x200040c0

080009a4 <Gimbal_Task_Function>:
 80009a4:	b508      	push	{r3, lr}
 80009a6:	2102      	movs	r1, #2
 80009a8:	4808      	ldr	r0, [pc, #32]	; (80009cc <Gimbal_Task_Function+0x28>)
 80009aa:	4c09      	ldr	r4, [pc, #36]	; (80009d0 <Gimbal_Task_Function+0x2c>)
 80009ac:	f000 feea 	bl	8001784 <HAL_CAN_ActivateNotification>
 80009b0:	4620      	mov	r0, r4
 80009b2:	2140      	movs	r1, #64	; 0x40
 80009b4:	f001 f947 	bl	8001c46 <HAL_GPIO_TogglePin>
 80009b8:	2100      	movs	r1, #0
 80009ba:	f641 504c 	movw	r0, #7500	; 0x1d4c
 80009be:	f7ff ffcf 	bl	8000960 <CAN_Send_Gimbal>
 80009c2:	2003      	movs	r0, #3
 80009c4:	f002 f839 	bl	8002a3a <osDelay>
 80009c8:	e7f2      	b.n	80009b0 <Gimbal_Task_Function+0xc>
 80009ca:	bf00      	nop
 80009cc:	200040c0 	.word	0x200040c0
 80009d0:	40021800 	.word	0x40021800

080009d4 <can_filter_enable>:
 80009d4:	b500      	push	{lr}
 80009d6:	2201      	movs	r2, #1
 80009d8:	b08b      	sub	sp, #44	; 0x2c
 80009da:	2300      	movs	r3, #0
 80009dc:	e9cd 2207 	strd	r2, r2, [sp, #28]
 80009e0:	4669      	mov	r1, sp
 80009e2:	221b      	movs	r2, #27
 80009e4:	e9cd 3300 	strd	r3, r3, [sp]
 80009e8:	e9cd 3302 	strd	r3, r3, [sp, #8]
 80009ec:	9304      	str	r3, [sp, #16]
 80009ee:	9306      	str	r3, [sp, #24]
 80009f0:	9209      	str	r2, [sp, #36]	; 0x24
 80009f2:	9305      	str	r3, [sp, #20]
 80009f4:	f000 fd54 	bl	80014a0 <HAL_CAN_ConfigFilter>
 80009f8:	b00b      	add	sp, #44	; 0x2c
 80009fa:	f85d fb04 	ldr.w	pc, [sp], #4

080009fe <can_filter_disable>:
 80009fe:	b500      	push	{lr}
 8000a00:	2300      	movs	r3, #0
 8000a02:	b08b      	sub	sp, #44	; 0x2c
 8000a04:	2201      	movs	r2, #1
 8000a06:	e9cd 2307 	strd	r2, r3, [sp, #28]
 8000a0a:	4669      	mov	r1, sp
 8000a0c:	221b      	movs	r2, #27
 8000a0e:	e9cd 3300 	strd	r3, r3, [sp]
 8000a12:	e9cd 3302 	strd	r3, r3, [sp, #8]
 8000a16:	9304      	str	r3, [sp, #16]
 8000a18:	9306      	str	r3, [sp, #24]
 8000a1a:	9209      	str	r2, [sp, #36]	; 0x24
 8000a1c:	9305      	str	r3, [sp, #20]
 8000a1e:	f000 fd3f 	bl	80014a0 <HAL_CAN_ConfigFilter>
 8000a22:	b00b      	add	sp, #44	; 0x2c
 8000a24:	f85d fb04 	ldr.w	pc, [sp], #4

08000a28 <HAL_CAN_RxFifo0MsgPendingCallback>:
 8000a28:	b500      	push	{lr}
 8000a2a:	6803      	ldr	r3, [r0, #0]
 8000a2c:	b089      	sub	sp, #36	; 0x24
 8000a2e:	f8d3 31b0 	ldr.w	r3, [r3, #432]	; 0x1b0
 8000a32:	aa08      	add	r2, sp, #32
 8000a34:	0d5b      	lsrs	r3, r3, #21
 8000a36:	f842 3d1c 	str.w	r3, [r2, #-28]!
 8000a3a:	2100      	movs	r1, #0
 8000a3c:	4b02      	ldr	r3, [pc, #8]	; (8000a48 <HAL_CAN_RxFifo0MsgPendingCallback+0x20>)
 8000a3e:	f000 fe2b 	bl	8001698 <HAL_CAN_GetRxMessage>
 8000a42:	b009      	add	sp, #36	; 0x24
 8000a44:	f85d fb04 	ldr.w	pc, [sp], #4
 8000a48:	20004128 	.word	0x20004128

08000a4c <HAL_GPIO_EXTI_Callback>:
 8000a4c:	2804      	cmp	r0, #4
 8000a4e:	b507      	push	{r0, r1, r2, lr}
 8000a50:	d11f      	bne.n	8000a92 <HAL_GPIO_EXTI_Callback+0x46>
 8000a52:	4811      	ldr	r0, [pc, #68]	; (8000a98 <HAL_GPIO_EXTI_Callback+0x4c>)
 8000a54:	f7ff ffbe 	bl	80009d4 <can_filter_enable>
 8000a58:	4910      	ldr	r1, [pc, #64]	; (8000a9c <HAL_GPIO_EXTI_Callback+0x50>)
 8000a5a:	788a      	ldrb	r2, [r1, #2]
 8000a5c:	78cb      	ldrb	r3, [r1, #3]
 8000a5e:	7808      	ldrb	r0, [r1, #0]
 8000a60:	ea43 2302 	orr.w	r3, r3, r2, lsl #8
 8000a64:	784a      	ldrb	r2, [r1, #1]
 8000a66:	ea42 2200 	orr.w	r2, r2, r0, lsl #8
 8000a6a:	7988      	ldrb	r0, [r1, #6]
 8000a6c:	9001      	str	r0, [sp, #4]
 8000a6e:	7908      	ldrb	r0, [r1, #4]
 8000a70:	7949      	ldrb	r1, [r1, #5]
 8000a72:	ea41 2100 	orr.w	r1, r1, r0, lsl #8
 8000a76:	b209      	sxth	r1, r1
 8000a78:	9100      	str	r1, [sp, #0]
 8000a7a:	b21b      	sxth	r3, r3
 8000a7c:	b212      	sxth	r2, r2
 8000a7e:	2101      	movs	r1, #1
 8000a80:	4807      	ldr	r0, [pc, #28]	; (8000aa0 <HAL_GPIO_EXTI_Callback+0x54>)
 8000a82:	f002 fe37 	bl	80036f4 <iprintf>
 8000a86:	4804      	ldr	r0, [pc, #16]	; (8000a98 <HAL_GPIO_EXTI_Callback+0x4c>)
 8000a88:	b003      	add	sp, #12
 8000a8a:	f85d eb04 	ldr.w	lr, [sp], #4
 8000a8e:	f7ff bfb6 	b.w	80009fe <can_filter_disable>
 8000a92:	b003      	add	sp, #12
 8000a94:	f85d fb04 	ldr.w	pc, [sp], #4
 8000a98:	200040c0 	.word	0x200040c0
 8000a9c:	20004128 	.word	0x20004128
 8000aa0:	0800463e 	.word	0x0800463e

08000aa4 <shoot_init>:
 8000aa4:	b510      	push	{r4, lr}
 8000aa6:	4c0d      	ldr	r4, [pc, #52]	; (8000adc <shoot_init+0x38>)
 8000aa8:	2100      	movs	r1, #0
 8000aaa:	4620      	mov	r0, r4
 8000aac:	f001 fe30 	bl	8002710 <HAL_TIM_PWM_Start>
 8000ab0:	2108      	movs	r1, #8
 8000ab2:	4620      	mov	r0, r4
 8000ab4:	f001 fe2c 	bl	8002710 <HAL_TIM_PWM_Start>
 8000ab8:	6823      	ldr	r3, [r4, #0]
 8000aba:	f44f 60fa 	mov.w	r0, #2000	; 0x7d0
 8000abe:	6358      	str	r0, [r3, #52]	; 0x34
 8000ac0:	63d8      	str	r0, [r3, #60]	; 0x3c
 8000ac2:	f001 ffba 	bl	8002a3a <osDelay>
 8000ac6:	6823      	ldr	r3, [r4, #0]
 8000ac8:	f44f 727a 	mov.w	r2, #1000	; 0x3e8
 8000acc:	635a      	str	r2, [r3, #52]	; 0x34
 8000ace:	f240 60d6 	movw	r0, #1750	; 0x6d6
 8000ad2:	63da      	str	r2, [r3, #60]	; 0x3c
 8000ad4:	e8bd 4010 	ldmia.w	sp!, {r4, lr}
 8000ad8:	f001 bfaf 	b.w	8002a3a <osDelay>
 8000adc:	20004058 	.word	0x20004058

08000ae0 <Shoot_Task_Func>:
 8000ae0:	b508      	push	{r3, lr}
 8000ae2:	f7ff ffdf 	bl	8000aa4 <shoot_init>
 8000ae6:	4e0a      	ldr	r6, [pc, #40]	; (8000b10 <Shoot_Task_Func+0x30>)
 8000ae8:	4d0a      	ldr	r5, [pc, #40]	; (8000b14 <Shoot_Task_Func+0x34>)
 8000aea:	f240 54dc 	movw	r4, #1500	; 0x5dc
 8000aee:	6833      	ldr	r3, [r6, #0]
 8000af0:	f44f 7180 	mov.w	r1, #256	; 0x100
 8000af4:	635c      	str	r4, [r3, #52]	; 0x34
 8000af6:	4628      	mov	r0, r5
 8000af8:	63dc      	str	r4, [r3, #60]	; 0x3c
 8000afa:	f001 f8a4 	bl	8001c46 <HAL_GPIO_TogglePin>
 8000afe:	f44f 70fa 	mov.w	r0, #500	; 0x1f4
 8000b02:	f001 ff9a 	bl	8002a3a <osDelay>
 8000b06:	2001      	movs	r0, #1
 8000b08:	f001 ff97 	bl	8002a3a <osDelay>
 8000b0c:	e7ef      	b.n	8000aee <Shoot_Task_Func+0xe>
 8000b0e:	bf00      	nop
 8000b10:	20004058 	.word	0x20004058
 8000b14:	40021800 	.word	0x40021800

08000b18 <buzzer_init>:
 8000b18:	2100      	movs	r1, #0
 8000b1a:	4801      	ldr	r0, [pc, #4]	; (8000b20 <buzzer_init+0x8>)
 8000b1c:	f001 bdf8 	b.w	8002710 <HAL_TIM_PWM_Start>
 8000b20:	200040e8 	.word	0x200040e8

08000b24 <MX_CAN1_Init>:
 8000b24:	480e      	ldr	r0, [pc, #56]	; (8000b60 <MX_CAN1_Init+0x3c>)
 8000b26:	4a0f      	ldr	r2, [pc, #60]	; (8000b64 <MX_CAN1_Init+0x40>)
 8000b28:	b508      	push	{r3, lr}
 8000b2a:	2303      	movs	r3, #3
 8000b2c:	e9c0 2300 	strd	r2, r3, [r0]
 8000b30:	f44f 2110 	mov.w	r1, #589824	; 0x90000
 8000b34:	f44f 1300 	mov.w	r3, #2097152	; 0x200000
 8000b38:	2200      	movs	r2, #0
 8000b3a:	e9c0 1304 	strd	r1, r3, [r0, #16]
 8000b3e:	2301      	movs	r3, #1
 8000b40:	e9c0 2202 	strd	r2, r2, [r0, #8]
 8000b44:	7602      	strb	r2, [r0, #24]
 8000b46:	7643      	strb	r3, [r0, #25]
 8000b48:	7683      	strb	r3, [r0, #26]
 8000b4a:	76c3      	strb	r3, [r0, #27]
 8000b4c:	7702      	strb	r2, [r0, #28]
 8000b4e:	7743      	strb	r3, [r0, #29]
 8000b50:	f000 fc2a 	bl	80013a8 <HAL_CAN_Init>
 8000b54:	b118      	cbz	r0, 8000b5e <MX_CAN1_Init+0x3a>
 8000b56:	e8bd 4008 	ldmia.w	sp!, {r3, lr}
 8000b5a:	f000 b9bb 	b.w	8000ed4 <Error_Handler>
 8000b5e:	bd08      	pop	{r3, pc}
 8000b60:	200040c0 	.word	0x200040c0
 8000b64:	40006400 	.word	0x40006400

08000b68 <HAL_CAN_MspInit>:
 8000b68:	b510      	push	{r4, lr}
 8000b6a:	4604      	mov	r4, r0
 8000b6c:	b088      	sub	sp, #32
 8000b6e:	2214      	movs	r2, #20
 8000b70:	2100      	movs	r1, #0
 8000b72:	a803      	add	r0, sp, #12
 8000b74:	f002 fdb6 	bl	80036e4 <memset>
 8000b78:	6822      	ldr	r2, [r4, #0]
 8000b7a:	4b1b      	ldr	r3, [pc, #108]	; (8000be8 <HAL_CAN_MspInit+0x80>)
 8000b7c:	429a      	cmp	r2, r3
 8000b7e:	d131      	bne.n	8000be4 <HAL_CAN_MspInit+0x7c>
 8000b80:	f503 33ea 	add.w	r3, r3, #119808	; 0x1d400
 8000b84:	2400      	movs	r4, #0
 8000b86:	9401      	str	r4, [sp, #4]
 8000b88:	6c1a      	ldr	r2, [r3, #64]	; 0x40
 8000b8a:	4818      	ldr	r0, [pc, #96]	; (8000bec <HAL_CAN_MspInit+0x84>)
 8000b8c:	f042 7200 	orr.w	r2, r2, #33554432	; 0x2000000
 8000b90:	641a      	str	r2, [r3, #64]	; 0x40
 8000b92:	6c1a      	ldr	r2, [r3, #64]	; 0x40
 8000b94:	f002 7200 	and.w	r2, r2, #33554432	; 0x2000000
 8000b98:	9201      	str	r2, [sp, #4]
 8000b9a:	9a01      	ldr	r2, [sp, #4]
 8000b9c:	9402      	str	r4, [sp, #8]
 8000b9e:	6b1a      	ldr	r2, [r3, #48]	; 0x30
 8000ba0:	f042 0208 	orr.w	r2, r2, #8
 8000ba4:	631a      	str	r2, [r3, #48]	; 0x30
 8000ba6:	6b1b      	ldr	r3, [r3, #48]	; 0x30
 8000ba8:	f003 0308 	and.w	r3, r3, #8
 8000bac:	9302      	str	r3, [sp, #8]
 8000bae:	2202      	movs	r2, #2
 8000bb0:	9b02      	ldr	r3, [sp, #8]
 8000bb2:	2303      	movs	r3, #3
 8000bb4:	e9cd 3203 	strd	r3, r2, [sp, #12]
 8000bb8:	9306      	str	r3, [sp, #24]
 8000bba:	a903      	add	r1, sp, #12
 8000bbc:	2309      	movs	r3, #9
 8000bbe:	9307      	str	r3, [sp, #28]
 8000bc0:	f000 ff50 	bl	8001a64 <HAL_GPIO_Init>
 8000bc4:	4622      	mov	r2, r4
 8000bc6:	2105      	movs	r1, #5
 8000bc8:	2013      	movs	r0, #19
 8000bca:	f000 ff09 	bl	80019e0 <HAL_NVIC_SetPriority>
 8000bce:	2013      	movs	r0, #19
 8000bd0:	f000 ff3a 	bl	8001a48 <HAL_NVIC_EnableIRQ>
 8000bd4:	2014      	movs	r0, #20
 8000bd6:	4622      	mov	r2, r4
 8000bd8:	2105      	movs	r1, #5
 8000bda:	f000 ff01 	bl	80019e0 <HAL_NVIC_SetPriority>
 8000bde:	2014      	movs	r0, #20
 8000be0:	f000 ff32 	bl	8001a48 <HAL_NVIC_EnableIRQ>
 8000be4:	b008      	add	sp, #32
 8000be6:	bd10      	pop	{r4, pc}
 8000be8:	40006400 	.word	0x40006400
 8000bec:	40020c00 	.word	0x40020c00

08000bf0 <StartDefaultTask>:
 8000bf0:	b508      	push	{r3, lr}
 8000bf2:	2001      	movs	r0, #1
 8000bf4:	f001 ff21 	bl	8002a3a <osDelay>
 8000bf8:	e7fb      	b.n	8000bf2 <StartDefaultTask+0x2>
	...

08000bfc <vApplicationGetIdleTaskMemory>:
 8000bfc:	4b03      	ldr	r3, [pc, #12]	; (8000c0c <vApplicationGetIdleTaskMemory+0x10>)
 8000bfe:	6003      	str	r3, [r0, #0]
 8000c00:	4b03      	ldr	r3, [pc, #12]	; (8000c10 <vApplicationGetIdleTaskMemory+0x14>)
 8000c02:	600b      	str	r3, [r1, #0]
 8000c04:	2380      	movs	r3, #128	; 0x80
 8000c06:	6013      	str	r3, [r2, #0]
 8000c08:	4770      	bx	lr
 8000c0a:	bf00      	nop
 8000c0c:	200002b0 	.word	0x200002b0
 8000c10:	200000b0 	.word	0x200000b0

08000c14 <MX_FREERTOS_Init>:
 8000c14:	b570      	push	{r4, r5, r6, lr}
 8000c16:	4c1c      	ldr	r4, [pc, #112]	; (8000c88 <MX_FREERTOS_Init+0x74>)
 8000c18:	4626      	mov	r6, r4
 8000c1a:	ce0f      	ldmia	r6!, {r0, r1, r2, r3}
 8000c1c:	b09c      	sub	sp, #112	; 0x70
 8000c1e:	466d      	mov	r5, sp
 8000c20:	c50f      	stmia	r5!, {r0, r1, r2, r3}
 8000c22:	e896 0007 	ldmia.w	r6, {r0, r1, r2}
 8000c26:	e885 0007 	stmia.w	r5, {r0, r1, r2}
 8000c2a:	2100      	movs	r1, #0
 8000c2c:	4668      	mov	r0, sp
 8000c2e:	f001 fedc 	bl	80029ea <osThreadCreate>
 8000c32:	4b16      	ldr	r3, [pc, #88]	; (8000c8c <MX_FREERTOS_Init+0x78>)
 8000c34:	f104 061c 	add.w	r6, r4, #28
 8000c38:	6018      	str	r0, [r3, #0]
 8000c3a:	ce0f      	ldmia	r6!, {r0, r1, r2, r3}
 8000c3c:	ad07      	add	r5, sp, #28
 8000c3e:	c50f      	stmia	r5!, {r0, r1, r2, r3}
 8000c40:	e896 0007 	ldmia.w	r6, {r0, r1, r2}
 8000c44:	f104 0638 	add.w	r6, r4, #56	; 0x38
 8000c48:	e885 0007 	stmia.w	r5, {r0, r1, r2}
 8000c4c:	2100      	movs	r1, #0
 8000c4e:	a807      	add	r0, sp, #28
 8000c50:	f001 fecb 	bl	80029ea <osThreadCreate>
 8000c54:	ce0f      	ldmia	r6!, {r0, r1, r2, r3}
 8000c56:	ad0e      	add	r5, sp, #56	; 0x38
 8000c58:	c50f      	stmia	r5!, {r0, r1, r2, r3}
 8000c5a:	e896 0007 	ldmia.w	r6, {r0, r1, r2}
 8000c5e:	3454      	adds	r4, #84	; 0x54
 8000c60:	e885 0007 	stmia.w	r5, {r0, r1, r2}
 8000c64:	2100      	movs	r1, #0
 8000c66:	a80e      	add	r0, sp, #56	; 0x38
 8000c68:	f001 febf 	bl	80029ea <osThreadCreate>
 8000c6c:	cc0f      	ldmia	r4!, {r0, r1, r2, r3}
 8000c6e:	ad15      	add	r5, sp, #84	; 0x54
 8000c70:	c50f      	stmia	r5!, {r0, r1, r2, r3}
 8000c72:	e894 0007 	ldmia.w	r4, {r0, r1, r2}
 8000c76:	e885 0007 	stmia.w	r5, {r0, r1, r2}
 8000c7a:	2100      	movs	r1, #0
 8000c7c:	a815      	add	r0, sp, #84	; 0x54
 8000c7e:	f001 feb4 	bl	80029ea <osThreadCreate>
 8000c82:	b01c      	add	sp, #112	; 0x70
 8000c84:	bd70      	pop	{r4, r5, r6, pc}
 8000c86:	bf00      	nop
 8000c88:	0800459c 	.word	0x0800459c
 8000c8c:	20004130 	.word	0x20004130

08000c90 <MX_GPIO_Init>:
 8000c90:	e92d 41f0 	stmdb	sp!, {r4, r5, r6, r7, r8, lr}
 8000c94:	b08c      	sub	sp, #48	; 0x30
 8000c96:	2214      	movs	r2, #20
 8000c98:	2100      	movs	r1, #0
 8000c9a:	a807      	add	r0, sp, #28
 8000c9c:	f002 fd22 	bl	80036e4 <memset>
 8000ca0:	2400      	movs	r4, #0
 8000ca2:	4b4a      	ldr	r3, [pc, #296]	; (8000dcc <MX_GPIO_Init+0x13c>)
 8000ca4:	9400      	str	r4, [sp, #0]
 8000ca6:	6b1a      	ldr	r2, [r3, #48]	; 0x30
 8000ca8:	4e49      	ldr	r6, [pc, #292]	; (8000dd0 <MX_GPIO_Init+0x140>)
 8000caa:	f8df 8134 	ldr.w	r8, [pc, #308]	; 8000de0 <MX_GPIO_Init+0x150>
 8000cae:	4f49      	ldr	r7, [pc, #292]	; (8000dd4 <MX_GPIO_Init+0x144>)
 8000cb0:	f042 0201 	orr.w	r2, r2, #1
 8000cb4:	631a      	str	r2, [r3, #48]	; 0x30
 8000cb6:	6b1a      	ldr	r2, [r3, #48]	; 0x30
 8000cb8:	f002 0201 	and.w	r2, r2, #1
 8000cbc:	9200      	str	r2, [sp, #0]
 8000cbe:	9a00      	ldr	r2, [sp, #0]
 8000cc0:	9401      	str	r4, [sp, #4]
 8000cc2:	6b1a      	ldr	r2, [r3, #48]	; 0x30
 8000cc4:	f042 0208 	orr.w	r2, r2, #8
 8000cc8:	631a      	str	r2, [r3, #48]	; 0x30
 8000cca:	6b1a      	ldr	r2, [r3, #48]	; 0x30
 8000ccc:	f002 0208 	and.w	r2, r2, #8
 8000cd0:	9201      	str	r2, [sp, #4]
 8000cd2:	9a01      	ldr	r2, [sp, #4]
 8000cd4:	9402      	str	r4, [sp, #8]
 8000cd6:	6b1a      	ldr	r2, [r3, #48]	; 0x30
 8000cd8:	f042 0280 	orr.w	r2, r2, #128	; 0x80
 8000cdc:	631a      	str	r2, [r3, #48]	; 0x30
 8000cde:	6b1a      	ldr	r2, [r3, #48]	; 0x30
 8000ce0:	f002 0280 	and.w	r2, r2, #128	; 0x80
 8000ce4:	9202      	str	r2, [sp, #8]
 8000ce6:	9a02      	ldr	r2, [sp, #8]
 8000ce8:	9403      	str	r4, [sp, #12]
 8000cea:	6b1a      	ldr	r2, [r3, #48]	; 0x30
 8000cec:	f042 0240 	orr.w	r2, r2, #64	; 0x40
 8000cf0:	631a      	str	r2, [r3, #48]	; 0x30
 8000cf2:	6b1a      	ldr	r2, [r3, #48]	; 0x30
 8000cf4:	f002 0240 	and.w	r2, r2, #64	; 0x40
 8000cf8:	9203      	str	r2, [sp, #12]
 8000cfa:	9a03      	ldr	r2, [sp, #12]
 8000cfc:	9404      	str	r4, [sp, #16]
 8000cfe:	6b1a      	ldr	r2, [r3, #48]	; 0x30
 8000d00:	f042 0202 	orr.w	r2, r2, #2
 8000d04:	631a      	str	r2, [r3, #48]	; 0x30
 8000d06:	6b1a      	ldr	r2, [r3, #48]	; 0x30
 8000d08:	f002 0202 	and.w	r2, r2, #2
 8000d0c:	9204      	str	r2, [sp, #16]
 8000d0e:	9a04      	ldr	r2, [sp, #16]
 8000d10:	9405      	str	r4, [sp, #20]
 8000d12:	6b1a      	ldr	r2, [r3, #48]	; 0x30
 8000d14:	f042 0210 	orr.w	r2, r2, #16
 8000d18:	631a      	str	r2, [r3, #48]	; 0x30
 8000d1a:	6b1a      	ldr	r2, [r3, #48]	; 0x30
 8000d1c:	f002 0210 	and.w	r2, r2, #16
 8000d20:	9205      	str	r2, [sp, #20]
 8000d22:	9a05      	ldr	r2, [sp, #20]
 8000d24:	9406      	str	r4, [sp, #24]
 8000d26:	6b1a      	ldr	r2, [r3, #48]	; 0x30
 8000d28:	f042 0220 	orr.w	r2, r2, #32
 8000d2c:	631a      	str	r2, [r3, #48]	; 0x30
 8000d2e:	6b1b      	ldr	r3, [r3, #48]	; 0x30
 8000d30:	f003 0320 	and.w	r3, r3, #32
 8000d34:	9306      	str	r3, [sp, #24]
 8000d36:	4630      	mov	r0, r6
 8000d38:	2201      	movs	r2, #1
 8000d3a:	f44f 71f0 	mov.w	r1, #480	; 0x1e0
 8000d3e:	9b06      	ldr	r3, [sp, #24]
 8000d40:	f000 ff7c 	bl	8001c3c <HAL_GPIO_WritePin>
 8000d44:	4622      	mov	r2, r4
 8000d46:	4630      	mov	r0, r6
 8000d48:	211e      	movs	r1, #30
 8000d4a:	f000 ff77 	bl	8001c3c <HAL_GPIO_WritePin>
 8000d4e:	4622      	mov	r2, r4
 8000d50:	4640      	mov	r0, r8
 8000d52:	f44f 6100 	mov.w	r1, #2048	; 0x800
 8000d56:	f000 ff71 	bl	8001c3c <HAL_GPIO_WritePin>
 8000d5a:	4622      	mov	r2, r4
 8000d5c:	4638      	mov	r0, r7
 8000d5e:	f44f 4180 	mov.w	r1, #16384	; 0x4000
 8000d62:	f000 ff6b 	bl	8001c3c <HAL_GPIO_WritePin>
 8000d66:	2501      	movs	r5, #1
 8000d68:	f44f 73ff 	mov.w	r3, #510	; 0x1fe
 8000d6c:	a907      	add	r1, sp, #28
 8000d6e:	4630      	mov	r0, r6
 8000d70:	e9cd 3507 	strd	r3, r5, [sp, #28]
 8000d74:	e9cd 4409 	strd	r4, r4, [sp, #36]	; 0x24
 8000d78:	f000 fe74 	bl	8001a64 <HAL_GPIO_Init>
 8000d7c:	4b16      	ldr	r3, [pc, #88]	; (8000dd8 <MX_GPIO_Init+0x148>)
 8000d7e:	4817      	ldr	r0, [pc, #92]	; (8000ddc <MX_GPIO_Init+0x14c>)
 8000d80:	9409      	str	r4, [sp, #36]	; 0x24
 8000d82:	2204      	movs	r2, #4
 8000d84:	a907      	add	r1, sp, #28
 8000d86:	e9cd 2307 	strd	r2, r3, [sp, #28]
 8000d8a:	f000 fe6b 	bl	8001a64 <HAL_GPIO_Init>
 8000d8e:	f44f 6300 	mov.w	r3, #2048	; 0x800
 8000d92:	a907      	add	r1, sp, #28
 8000d94:	4640      	mov	r0, r8
 8000d96:	e9cd 3507 	strd	r3, r5, [sp, #28]
 8000d9a:	e9cd 4409 	strd	r4, r4, [sp, #36]	; 0x24
 8000d9e:	f000 fe61 	bl	8001a64 <HAL_GPIO_Init>
 8000da2:	f44f 4380 	mov.w	r3, #16384	; 0x4000
 8000da6:	a907      	add	r1, sp, #28
 8000da8:	4638      	mov	r0, r7
 8000daa:	e9cd 3507 	strd	r3, r5, [sp, #28]
 8000dae:	e9cd 4409 	strd	r4, r4, [sp, #36]	; 0x24
 8000db2:	f000 fe57 	bl	8001a64 <HAL_GPIO_Init>
 8000db6:	4622      	mov	r2, r4
 8000db8:	2105      	movs	r1, #5
 8000dba:	2008      	movs	r0, #8
 8000dbc:	f000 fe10 	bl	80019e0 <HAL_NVIC_SetPriority>
 8000dc0:	2008      	movs	r0, #8
 8000dc2:	f000 fe41 	bl	8001a48 <HAL_NVIC_EnableIRQ>
 8000dc6:	b00c      	add	sp, #48	; 0x30
 8000dc8:	e8bd 81f0 	ldmia.w	sp!, {r4, r5, r6, r7, r8, pc}
 8000dcc:	40023800 	.word	0x40023800
 8000dd0:	40021800 	.word	0x40021800
 8000dd4:	40021400 	.word	0x40021400
 8000dd8:	10110000 	.word	0x10110000
 8000ddc:	40020400 	.word	0x40020400
 8000de0:	40021000 	.word	0x40021000

08000de4 <SystemClock_Config>:
 8000de4:	b510      	push	{r4, lr}
 8000de6:	b094      	sub	sp, #80	; 0x50
 8000de8:	2210      	movs	r2, #16
 8000dea:	2100      	movs	r1, #0
 8000dec:	a80a      	add	r0, sp, #40	; 0x28
 8000dee:	f002 fc79 	bl	80036e4 <memset>
 8000df2:	2214      	movs	r2, #20
 8000df4:	2100      	movs	r1, #0
 8000df6:	a803      	add	r0, sp, #12
 8000df8:	f002 fc74 	bl	80036e4 <memset>
 8000dfc:	2100      	movs	r1, #0
 8000dfe:	4b20      	ldr	r3, [pc, #128]	; (8000e80 <SystemClock_Config+0x9c>)
 8000e00:	9101      	str	r1, [sp, #4]
 8000e02:	6c1a      	ldr	r2, [r3, #64]	; 0x40
 8000e04:	f042 5280 	orr.w	r2, r2, #268435456	; 0x10000000
 8000e08:	641a      	str	r2, [r3, #64]	; 0x40
 8000e0a:	6c1b      	ldr	r3, [r3, #64]	; 0x40
 8000e0c:	4a1d      	ldr	r2, [pc, #116]	; (8000e84 <SystemClock_Config+0xa0>)
 8000e0e:	f003 5380 	and.w	r3, r3, #268435456	; 0x10000000
 8000e12:	9301      	str	r3, [sp, #4]
 8000e14:	9b01      	ldr	r3, [sp, #4]
 8000e16:	9102      	str	r1, [sp, #8]
 8000e18:	6813      	ldr	r3, [r2, #0]
 8000e1a:	f423 4340 	bic.w	r3, r3, #49152	; 0xc000
 8000e1e:	f443 4380 	orr.w	r3, r3, #16384	; 0x4000
 8000e22:	6013      	str	r3, [r2, #0]
 8000e24:	6813      	ldr	r3, [r2, #0]
 8000e26:	f403 4340 	and.w	r3, r3, #49152	; 0xc000
 8000e2a:	9302      	str	r3, [sp, #8]
 8000e2c:	9b02      	ldr	r3, [sp, #8]
 8000e2e:	2101      	movs	r1, #1
 8000e30:	f44f 3380 	mov.w	r3, #65536	; 0x10000
 8000e34:	2402      	movs	r4, #2
 8000e36:	e9cd 1308 	strd	r1, r3, [sp, #32]
 8000e3a:	f44f 0380 	mov.w	r3, #4194304	; 0x400000
 8000e3e:	2006      	movs	r0, #6
 8000e40:	e9cd 430e 	strd	r4, r3, [sp, #56]	; 0x38
 8000e44:	23a8      	movs	r3, #168	; 0xa8
 8000e46:	e9cd 0310 	strd	r0, r3, [sp, #64]	; 0x40
 8000e4a:	2304      	movs	r3, #4
 8000e4c:	a808      	add	r0, sp, #32
 8000e4e:	9412      	str	r4, [sp, #72]	; 0x48
 8000e50:	9313      	str	r3, [sp, #76]	; 0x4c
 8000e52:	f000 ff0b 	bl	8001c6c <HAL_RCC_OscConfig>
 8000e56:	b108      	cbz	r0, 8000e5c <SystemClock_Config+0x78>
 8000e58:	b672      	cpsid	i
 8000e5a:	e7fe      	b.n	8000e5a <SystemClock_Config+0x76>
 8000e5c:	230f      	movs	r3, #15
 8000e5e:	e9cd 3403 	strd	r3, r4, [sp, #12]
 8000e62:	2280      	movs	r2, #128	; 0x80
 8000e64:	f44f 5380 	mov.w	r3, #4096	; 0x1000
 8000e68:	4621      	mov	r1, r4
 8000e6a:	a803      	add	r0, sp, #12
 8000e6c:	e9cd 2305 	strd	r2, r3, [sp, #20]
 8000e70:	9307      	str	r3, [sp, #28]
 8000e72:	f001 f8cf 	bl	8002014 <HAL_RCC_ClockConfig>
 8000e76:	b108      	cbz	r0, 8000e7c <SystemClock_Config+0x98>
 8000e78:	b672      	cpsid	i
 8000e7a:	e7fe      	b.n	8000e7a <SystemClock_Config+0x96>
 8000e7c:	b014      	add	sp, #80	; 0x50
 8000e7e:	bd10      	pop	{r4, pc}
 8000e80:	40023800 	.word	0x40023800
 8000e84:	40007000 	.word	0x40007000

08000e88 <main>:
 8000e88:	b508      	push	{r3, lr}
 8000e8a:	f000 fa61 	bl	8001350 <HAL_Init>
 8000e8e:	f7ff ffa9 	bl	8000de4 <SystemClock_Config>
 8000e92:	f7ff fefd 	bl	8000c90 <MX_GPIO_Init>
 8000e96:	f7ff fe45 	bl	8000b24 <MX_CAN1_Init>
 8000e9a:	f000 f959 	bl	8001150 <MX_TIM4_Init>
 8000e9e:	f000 f99b 	bl	80011d8 <MX_TIM12_Init>
 8000ea2:	f000 f9d7 	bl	8001254 <MX_UART7_Init>
 8000ea6:	f7ff fe37 	bl	8000b18 <buzzer_init>
 8000eaa:	4804      	ldr	r0, [pc, #16]	; (8000ebc <main+0x34>)
 8000eac:	f000 fb7c 	bl	80015a8 <HAL_CAN_Start>
 8000eb0:	f7ff feb0 	bl	8000c14 <MX_FREERTOS_Init>
 8000eb4:	f001 fd94 	bl	80029e0 <osKernelStart>
 8000eb8:	e7fe      	b.n	8000eb8 <main+0x30>
 8000eba:	bf00      	nop
 8000ebc:	200040c0 	.word	0x200040c0

08000ec0 <HAL_TIM_PeriodElapsedCallback>:
 8000ec0:	6802      	ldr	r2, [r0, #0]
 8000ec2:	4b03      	ldr	r3, [pc, #12]	; (8000ed0 <HAL_TIM_PeriodElapsedCallback+0x10>)
 8000ec4:	429a      	cmp	r2, r3
 8000ec6:	d101      	bne.n	8000ecc <HAL_TIM_PeriodElapsedCallback+0xc>
 8000ec8:	f000 ba5c 	b.w	8001384 <HAL_IncTick>
 8000ecc:	4770      	bx	lr
 8000ece:	bf00      	nop
 8000ed0:	40000c00 	.word	0x40000c00

08000ed4 <Error_Handler>:
 8000ed4:	b672      	cpsid	i
 8000ed6:	e7fe      	b.n	8000ed6 <Error_Handler+0x2>

08000ed8 <HAL_MspInit>:
 8000ed8:	b082      	sub	sp, #8
 8000eda:	4b0e      	ldr	r3, [pc, #56]	; (8000f14 <HAL_MspInit+0x3c>)
 8000edc:	2200      	movs	r2, #0
 8000ede:	9200      	str	r2, [sp, #0]
 8000ee0:	6c59      	ldr	r1, [r3, #68]	; 0x44
 8000ee2:	f441 4180 	orr.w	r1, r1, #16384	; 0x4000
 8000ee6:	6459      	str	r1, [r3, #68]	; 0x44
 8000ee8:	6c59      	ldr	r1, [r3, #68]	; 0x44
 8000eea:	f401 4180 	and.w	r1, r1, #16384	; 0x4000
 8000eee:	9100      	str	r1, [sp, #0]
 8000ef0:	9900      	ldr	r1, [sp, #0]
 8000ef2:	9201      	str	r2, [sp, #4]
 8000ef4:	6c19      	ldr	r1, [r3, #64]	; 0x40
 8000ef6:	f041 5180 	orr.w	r1, r1, #268435456	; 0x10000000
 8000efa:	6419      	str	r1, [r3, #64]	; 0x40
 8000efc:	6c1b      	ldr	r3, [r3, #64]	; 0x40
 8000efe:	f003 5380 	and.w	r3, r3, #268435456	; 0x10000000
 8000f02:	9301      	str	r3, [sp, #4]
 8000f04:	9b01      	ldr	r3, [sp, #4]
 8000f06:	210f      	movs	r1, #15
 8000f08:	f06f 0001 	mvn.w	r0, #1
 8000f0c:	b002      	add	sp, #8
 8000f0e:	f000 bd67 	b.w	80019e0 <HAL_NVIC_SetPriority>
 8000f12:	bf00      	nop
 8000f14:	40023800 	.word	0x40023800

08000f18 <HAL_InitTick>:
 8000f18:	b530      	push	{r4, r5, lr}
 8000f1a:	4601      	mov	r1, r0
 8000f1c:	b089      	sub	sp, #36	; 0x24
 8000f1e:	2200      	movs	r2, #0
 8000f20:	2032      	movs	r0, #50	; 0x32
 8000f22:	f000 fd5d 	bl	80019e0 <HAL_NVIC_SetPriority>
 8000f26:	2032      	movs	r0, #50	; 0x32
 8000f28:	f000 fd8e 	bl	8001a48 <HAL_NVIC_EnableIRQ>
 8000f2c:	2500      	movs	r5, #0
 8000f2e:	4b15      	ldr	r3, [pc, #84]	; (8000f84 <HAL_InitTick+0x6c>)
 8000f30:	9502      	str	r5, [sp, #8]
 8000f32:	6c1a      	ldr	r2, [r3, #64]	; 0x40
 8000f34:	4c14      	ldr	r4, [pc, #80]	; (8000f88 <HAL_InitTick+0x70>)
 8000f36:	f042 0208 	orr.w	r2, r2, #8
 8000f3a:	641a      	str	r2, [r3, #64]	; 0x40
 8000f3c:	6c1b      	ldr	r3, [r3, #64]	; 0x40
 8000f3e:	f003 0308 	and.w	r3, r3, #8
 8000f42:	9302      	str	r3, [sp, #8]
 8000f44:	a901      	add	r1, sp, #4
 8000f46:	a803      	add	r0, sp, #12
 8000f48:	9b02      	ldr	r3, [sp, #8]
 8000f4a:	f001 f91d 	bl	8002188 <HAL_RCC_GetClockConfig>
 8000f4e:	f001 f8fb 	bl	8002148 <HAL_RCC_GetPCLK1Freq>
 8000f52:	4b0e      	ldr	r3, [pc, #56]	; (8000f8c <HAL_InitTick+0x74>)
 8000f54:	6023      	str	r3, [r4, #0]
 8000f56:	f240 33e7 	movw	r3, #999	; 0x3e7
 8000f5a:	60e3      	str	r3, [r4, #12]
 8000f5c:	0040      	lsls	r0, r0, #1
 8000f5e:	4b0c      	ldr	r3, [pc, #48]	; (8000f90 <HAL_InitTick+0x78>)
 8000f60:	fbb0 f0f3 	udiv	r0, r0, r3
 8000f64:	3801      	subs	r0, #1
 8000f66:	6060      	str	r0, [r4, #4]
 8000f68:	4620      	mov	r0, r4
 8000f6a:	6125      	str	r5, [r4, #16]
 8000f6c:	60a5      	str	r5, [r4, #8]
 8000f6e:	f001 fad5 	bl	800251c <HAL_TIM_Base_Init>
 8000f72:	b920      	cbnz	r0, 8000f7e <HAL_InitTick+0x66>
 8000f74:	4620      	mov	r0, r4
 8000f76:	f001 f9b4 	bl	80022e2 <HAL_TIM_Base_Start_IT>
 8000f7a:	b009      	add	sp, #36	; 0x24
 8000f7c:	bd30      	pop	{r4, r5, pc}
 8000f7e:	2001      	movs	r0, #1
 8000f80:	e7fb      	b.n	8000f7a <HAL_InitTick+0x62>
 8000f82:	bf00      	nop
 8000f84:	40023800 	.word	0x40023800
 8000f88:	20004134 	.word	0x20004134
 8000f8c:	40000c00 	.word	0x40000c00
 8000f90:	000f4240 	.word	0x000f4240

08000f94 <NMI_Handler>:
 8000f94:	e7fe      	b.n	8000f94 <NMI_Handler>

08000f96 <HardFault_Handler>:
 8000f96:	e7fe      	b.n	8000f96 <HardFault_Handler>

08000f98 <MemManage_Handler>:
 8000f98:	e7fe      	b.n	8000f98 <MemManage_Handler>

08000f9a <BusFault_Handler>:
 8000f9a:	e7fe      	b.n	8000f9a <BusFault_Handler>

08000f9c <UsageFault_Handler>:
 8000f9c:	e7fe      	b.n	8000f9c <UsageFault_Handler>

08000f9e <DebugMon_Handler>:
 8000f9e:	4770      	bx	lr

08000fa0 <EXTI2_IRQHandler>:
 8000fa0:	2004      	movs	r0, #4
 8000fa2:	f000 be57 	b.w	8001c54 <HAL_GPIO_EXTI_IRQHandler>
	...

08000fa8 <CAN1_TX_IRQHandler>:
 8000fa8:	4801      	ldr	r0, [pc, #4]	; (8000fb0 <CAN1_TX_IRQHandler+0x8>)
 8000faa:	f000 bc08 	b.w	80017be <HAL_CAN_IRQHandler>
 8000fae:	bf00      	nop
 8000fb0:	200040c0 	.word	0x200040c0

08000fb4 <CAN1_RX0_IRQHandler>:
 8000fb4:	f7ff bff8 	b.w	8000fa8 <CAN1_TX_IRQHandler>

08000fb8 <TIM5_IRQHandler>:
 8000fb8:	4801      	ldr	r0, [pc, #4]	; (8000fc0 <TIM5_IRQHandler+0x8>)
 8000fba:	f001 b9a6 	b.w	800230a <HAL_TIM_IRQHandler>
 8000fbe:	bf00      	nop
 8000fc0:	20004134 	.word	0x20004134

08000fc4 <_read>:
 8000fc4:	b570      	push	{r4, r5, r6, lr}
 8000fc6:	460e      	mov	r6, r1
 8000fc8:	4615      	mov	r5, r2
 8000fca:	460c      	mov	r4, r1
 8000fcc:	1ba3      	subs	r3, r4, r6
 8000fce:	429d      	cmp	r5, r3
 8000fd0:	dc01      	bgt.n	8000fd6 <_read+0x12>
 8000fd2:	4628      	mov	r0, r5
 8000fd4:	bd70      	pop	{r4, r5, r6, pc}
 8000fd6:	f3af 8000 	nop.w
 8000fda:	f804 0b01 	strb.w	r0, [r4], #1
 8000fde:	e7f5      	b.n	8000fcc <_read+0x8>

08000fe0 <_write>:
 8000fe0:	b570      	push	{r4, r5, r6, lr}
 8000fe2:	460e      	mov	r6, r1
 8000fe4:	4615      	mov	r5, r2
 8000fe6:	460c      	mov	r4, r1
 8000fe8:	1ba3      	subs	r3, r4, r6
 8000fea:	429d      	cmp	r5, r3
 8000fec:	dc01      	bgt.n	8000ff2 <_write+0x12>
 8000fee:	4628      	mov	r0, r5
 8000ff0:	bd70      	pop	{r4, r5, r6, pc}
 8000ff2:	f814 0b01 	ldrb.w	r0, [r4], #1
 8000ff6:	f000 f91d 	bl	8001234 <__io_putchar>
 8000ffa:	e7f5      	b.n	8000fe8 <_write+0x8>

08000ffc <_close>:
 8000ffc:	f04f 30ff 	mov.w	r0, #4294967295
 8001000:	4770      	bx	lr

08001002 <_fstat>:
 8001002:	f44f 5300 	mov.w	r3, #8192	; 0x2000
 8001006:	604b      	str	r3, [r1, #4]
 8001008:	2000      	movs	r0, #0
 800100a:	4770      	bx	lr

0800100c <_isatty>:
 800100c:	2001      	movs	r0, #1
 800100e:	4770      	bx	lr

08001010 <_lseek>:
 8001010:	2000      	movs	r0, #0
 8001012:	4770      	bx	lr

08001014 <_sbrk>:
 8001014:	4b0b      	ldr	r3, [pc, #44]	; (8001044 <_sbrk+0x30>)
 8001016:	6819      	ldr	r1, [r3, #0]
 8001018:	b510      	push	{r4, lr}
 800101a:	4602      	mov	r2, r0
 800101c:	b909      	cbnz	r1, 8001022 <_sbrk+0xe>
 800101e:	490a      	ldr	r1, [pc, #40]	; (8001048 <_sbrk+0x34>)
 8001020:	6019      	str	r1, [r3, #0]
 8001022:	6818      	ldr	r0, [r3, #0]
 8001024:	4909      	ldr	r1, [pc, #36]	; (800104c <_sbrk+0x38>)
 8001026:	4c0a      	ldr	r4, [pc, #40]	; (8001050 <_sbrk+0x3c>)
 8001028:	4402      	add	r2, r0
 800102a:	1b09      	subs	r1, r1, r4
 800102c:	428a      	cmp	r2, r1
 800102e:	d906      	bls.n	800103e <_sbrk+0x2a>
 8001030:	f002 fb2e 	bl	8003690 <__errno>
 8001034:	230c      	movs	r3, #12
 8001036:	6003      	str	r3, [r0, #0]
 8001038:	f04f 30ff 	mov.w	r0, #4294967295
 800103c:	bd10      	pop	{r4, pc}
 800103e:	601a      	str	r2, [r3, #0]
 8001040:	e7fc      	b.n	800103c <_sbrk+0x28>
 8001042:	bf00      	nop
 8001044:	20000304 	.word	0x20000304
 8001048:	200041c0 	.word	0x200041c0
 800104c:	20030000 	.word	0x20030000
 8001050:	00000400 	.word	0x00000400

08001054 <SystemInit>:
 8001054:	4b05      	ldr	r3, [pc, #20]	; (800106c <SystemInit+0x18>)
 8001056:	f8d3 2088 	ldr.w	r2, [r3, #136]	; 0x88
 800105a:	f442 0270 	orr.w	r2, r2, #15728640	; 0xf00000
 800105e:	f8c3 2088 	str.w	r2, [r3, #136]	; 0x88
 8001062:	f04f 6200 	mov.w	r2, #134217728	; 0x8000000
 8001066:	609a      	str	r2, [r3, #8]
 8001068:	4770      	bx	lr
 800106a:	bf00      	nop
 800106c:	e000ed00 	.word	0xe000ed00

08001070 <HAL_TIM_PWM_MspInit>:
 8001070:	6803      	ldr	r3, [r0, #0]
 8001072:	4a11      	ldr	r2, [pc, #68]	; (80010b8 <HAL_TIM_PWM_MspInit+0x48>)
 8001074:	4293      	cmp	r3, r2
 8001076:	b082      	sub	sp, #8
 8001078:	d10d      	bne.n	8001096 <HAL_TIM_PWM_MspInit+0x26>
 800107a:	2300      	movs	r3, #0
 800107c:	9300      	str	r3, [sp, #0]
 800107e:	4b0f      	ldr	r3, [pc, #60]	; (80010bc <HAL_TIM_PWM_MspInit+0x4c>)
 8001080:	6c1a      	ldr	r2, [r3, #64]	; 0x40
 8001082:	f042 0204 	orr.w	r2, r2, #4
 8001086:	641a      	str	r2, [r3, #64]	; 0x40
 8001088:	6c1b      	ldr	r3, [r3, #64]	; 0x40
 800108a:	f003 0304 	and.w	r3, r3, #4
 800108e:	9300      	str	r3, [sp, #0]
 8001090:	9b00      	ldr	r3, [sp, #0]
 8001092:	b002      	add	sp, #8
 8001094:	4770      	bx	lr
 8001096:	4a0a      	ldr	r2, [pc, #40]	; (80010c0 <HAL_TIM_PWM_MspInit+0x50>)
 8001098:	4293      	cmp	r3, r2
 800109a:	d1fa      	bne.n	8001092 <HAL_TIM_PWM_MspInit+0x22>
 800109c:	2300      	movs	r3, #0
 800109e:	9301      	str	r3, [sp, #4]
 80010a0:	4b06      	ldr	r3, [pc, #24]	; (80010bc <HAL_TIM_PWM_MspInit+0x4c>)
 80010a2:	6c1a      	ldr	r2, [r3, #64]	; 0x40
 80010a4:	f042 0240 	orr.w	r2, r2, #64	; 0x40
 80010a8:	641a      	str	r2, [r3, #64]	; 0x40
 80010aa:	6c1b      	ldr	r3, [r3, #64]	; 0x40
 80010ac:	f003 0340 	and.w	r3, r3, #64	; 0x40
 80010b0:	9301      	str	r3, [sp, #4]
 80010b2:	9b01      	ldr	r3, [sp, #4]
 80010b4:	e7ed      	b.n	8001092 <HAL_TIM_PWM_MspInit+0x22>
 80010b6:	bf00      	nop
 80010b8:	40000800 	.word	0x40000800
 80010bc:	40023800 	.word	0x40023800
 80010c0:	40001800 	.word	0x40001800

080010c4 <HAL_TIM_MspPostInit>:
 80010c4:	b510      	push	{r4, lr}
 80010c6:	4604      	mov	r4, r0
 80010c8:	b088      	sub	sp, #32
 80010ca:	2214      	movs	r2, #20
 80010cc:	2100      	movs	r1, #0
 80010ce:	a803      	add	r0, sp, #12
 80010d0:	f002 fb08 	bl	80036e4 <memset>
 80010d4:	6823      	ldr	r3, [r4, #0]
 80010d6:	4a19      	ldr	r2, [pc, #100]	; (800113c <HAL_TIM_MspPostInit+0x78>)
 80010d8:	4293      	cmp	r3, r2
 80010da:	d117      	bne.n	800110c <HAL_TIM_MspPostInit+0x48>
 80010dc:	2300      	movs	r3, #0
 80010de:	9301      	str	r3, [sp, #4]
 80010e0:	4b17      	ldr	r3, [pc, #92]	; (8001140 <HAL_TIM_MspPostInit+0x7c>)
 80010e2:	4818      	ldr	r0, [pc, #96]	; (8001144 <HAL_TIM_MspPostInit+0x80>)
 80010e4:	6b1a      	ldr	r2, [r3, #48]	; 0x30
 80010e6:	f042 0208 	orr.w	r2, r2, #8
 80010ea:	631a      	str	r2, [r3, #48]	; 0x30
 80010ec:	6b1b      	ldr	r3, [r3, #48]	; 0x30
 80010ee:	f003 0308 	and.w	r3, r3, #8
 80010f2:	9301      	str	r3, [sp, #4]
 80010f4:	f44f 41a0 	mov.w	r1, #20480	; 0x5000
 80010f8:	9b01      	ldr	r3, [sp, #4]
 80010fa:	2302      	movs	r3, #2
 80010fc:	e9cd 1303 	strd	r1, r3, [sp, #12]
 8001100:	9307      	str	r3, [sp, #28]
 8001102:	a903      	add	r1, sp, #12
 8001104:	f000 fcae 	bl	8001a64 <HAL_GPIO_Init>
 8001108:	b008      	add	sp, #32
 800110a:	bd10      	pop	{r4, pc}
 800110c:	4a0e      	ldr	r2, [pc, #56]	; (8001148 <HAL_TIM_MspPostInit+0x84>)
 800110e:	4293      	cmp	r3, r2
 8001110:	d1fa      	bne.n	8001108 <HAL_TIM_MspPostInit+0x44>
 8001112:	2300      	movs	r3, #0
 8001114:	9302      	str	r3, [sp, #8]
 8001116:	4b0a      	ldr	r3, [pc, #40]	; (8001140 <HAL_TIM_MspPostInit+0x7c>)
 8001118:	480c      	ldr	r0, [pc, #48]	; (800114c <HAL_TIM_MspPostInit+0x88>)
 800111a:	6b1a      	ldr	r2, [r3, #48]	; 0x30
 800111c:	f042 0280 	orr.w	r2, r2, #128	; 0x80
 8001120:	631a      	str	r2, [r3, #48]	; 0x30
 8001122:	6b1b      	ldr	r3, [r3, #48]	; 0x30
 8001124:	f003 0380 	and.w	r3, r3, #128	; 0x80
 8001128:	9302      	str	r3, [sp, #8]
 800112a:	9b02      	ldr	r3, [sp, #8]
 800112c:	2240      	movs	r2, #64	; 0x40
 800112e:	2302      	movs	r3, #2
 8001130:	e9cd 2303 	strd	r2, r3, [sp, #12]
 8001134:	2309      	movs	r3, #9
 8001136:	9307      	str	r3, [sp, #28]
 8001138:	a903      	add	r1, sp, #12
 800113a:	e7e3      	b.n	8001104 <HAL_TIM_MspPostInit+0x40>
 800113c:	40000800 	.word	0x40000800
 8001140:	40023800 	.word	0x40023800
 8001144:	40020c00 	.word	0x40020c00
 8001148:	40001800 	.word	0x40001800
 800114c:	40021c00 	.word	0x40021c00

08001150 <MX_TIM4_Init>:
 8001150:	b510      	push	{r4, lr}
 8001152:	2400      	movs	r4, #0
 8001154:	b08a      	sub	sp, #40	; 0x28
 8001156:	4621      	mov	r1, r4
 8001158:	221c      	movs	r2, #28
 800115a:	a803      	add	r0, sp, #12
 800115c:	e9cd 4401 	strd	r4, r4, [sp, #4]
 8001160:	f002 fac0 	bl	80036e4 <memset>
 8001164:	481a      	ldr	r0, [pc, #104]	; (80011d0 <MX_TIM4_Init+0x80>)
 8001166:	491b      	ldr	r1, [pc, #108]	; (80011d4 <MX_TIM4_Init+0x84>)
 8001168:	6084      	str	r4, [r0, #8]
 800116a:	2353      	movs	r3, #83	; 0x53
 800116c:	e9c0 1300 	strd	r1, r3, [r0]
 8001170:	f242 730f 	movw	r3, #9999	; 0x270f
 8001174:	e9c0 3403 	strd	r3, r4, [r0, #12]
 8001178:	6184      	str	r4, [r0, #24]
 800117a:	f001 f9e9 	bl	8002550 <HAL_TIM_PWM_Init>
 800117e:	b108      	cbz	r0, 8001184 <MX_TIM4_Init+0x34>
 8001180:	f7ff fea8 	bl	8000ed4 <Error_Handler>
 8001184:	a901      	add	r1, sp, #4
 8001186:	4812      	ldr	r0, [pc, #72]	; (80011d0 <MX_TIM4_Init+0x80>)
 8001188:	e9cd 4401 	strd	r4, r4, [sp, #4]
 800118c:	f001 fac2 	bl	8002714 <HAL_TIMEx_MasterConfigSynchronization>
 8001190:	b108      	cbz	r0, 8001196 <MX_TIM4_Init+0x46>
 8001192:	f7ff fe9f 	bl	8000ed4 <Error_Handler>
 8001196:	2260      	movs	r2, #96	; 0x60
 8001198:	f44f 737a 	mov.w	r3, #1000	; 0x3e8
 800119c:	e9cd 2303 	strd	r2, r3, [sp, #12]
 80011a0:	a903      	add	r1, sp, #12
 80011a2:	2200      	movs	r2, #0
 80011a4:	480a      	ldr	r0, [pc, #40]	; (80011d0 <MX_TIM4_Init+0x80>)
 80011a6:	9205      	str	r2, [sp, #20]
 80011a8:	9207      	str	r2, [sp, #28]
 80011aa:	f001 fa21 	bl	80025f0 <HAL_TIM_PWM_ConfigChannel>
 80011ae:	b108      	cbz	r0, 80011b4 <MX_TIM4_Init+0x64>
 80011b0:	f7ff fe90 	bl	8000ed4 <Error_Handler>
 80011b4:	2208      	movs	r2, #8
 80011b6:	a903      	add	r1, sp, #12
 80011b8:	4805      	ldr	r0, [pc, #20]	; (80011d0 <MX_TIM4_Init+0x80>)
 80011ba:	f001 fa19 	bl	80025f0 <HAL_TIM_PWM_ConfigChannel>
 80011be:	b108      	cbz	r0, 80011c4 <MX_TIM4_Init+0x74>
 80011c0:	f7ff fe88 	bl	8000ed4 <Error_Handler>
 80011c4:	4802      	ldr	r0, [pc, #8]	; (80011d0 <MX_TIM4_Init+0x80>)
 80011c6:	f7ff ff7d 	bl	80010c4 <HAL_TIM_MspPostInit>
 80011ca:	b00a      	add	sp, #40	; 0x28
 80011cc:	bd10      	pop	{r4, pc}
 80011ce:	bf00      	nop
 80011d0:	20004058 	.word	0x20004058
 80011d4:	40000800 	.word	0x40000800

080011d8 <MX_TIM12_Init>:
 80011d8:	b510      	push	{r4, lr}
 80011da:	b088      	sub	sp, #32
 80011dc:	221c      	movs	r2, #28
 80011de:	2100      	movs	r1, #0
 80011e0:	a801      	add	r0, sp, #4
 80011e2:	f002 fa7f 	bl	80036e4 <memset>
 80011e6:	4811      	ldr	r0, [pc, #68]	; (800122c <MX_TIM12_Init+0x54>)
 80011e8:	4a11      	ldr	r2, [pc, #68]	; (8001230 <MX_TIM12_Init+0x58>)
 80011ea:	2323      	movs	r3, #35	; 0x23
 80011ec:	2400      	movs	r4, #0
 80011ee:	e9c0 2300 	strd	r2, r3, [r0]
 80011f2:	f242 730f 	movw	r3, #9999	; 0x270f
 80011f6:	e9c0 4302 	strd	r4, r3, [r0, #8]
 80011fa:	6104      	str	r4, [r0, #16]
 80011fc:	6184      	str	r4, [r0, #24]
 80011fe:	f001 f9a7 	bl	8002550 <HAL_TIM_PWM_Init>
 8001202:	b108      	cbz	r0, 8001208 <MX_TIM12_Init+0x30>
 8001204:	f7ff fe66 	bl	8000ed4 <Error_Handler>
 8001208:	2360      	movs	r3, #96	; 0x60
 800120a:	2200      	movs	r2, #0
 800120c:	a901      	add	r1, sp, #4
 800120e:	4807      	ldr	r0, [pc, #28]	; (800122c <MX_TIM12_Init+0x54>)
 8001210:	9403      	str	r4, [sp, #12]
 8001212:	e9cd 3401 	strd	r3, r4, [sp, #4]
 8001216:	9405      	str	r4, [sp, #20]
 8001218:	f001 f9ea 	bl	80025f0 <HAL_TIM_PWM_ConfigChannel>
 800121c:	b108      	cbz	r0, 8001222 <MX_TIM12_Init+0x4a>
 800121e:	f7ff fe59 	bl	8000ed4 <Error_Handler>
 8001222:	4802      	ldr	r0, [pc, #8]	; (800122c <MX_TIM12_Init+0x54>)
 8001224:	f7ff ff4e 	bl	80010c4 <HAL_TIM_MspPostInit>
 8001228:	b008      	add	sp, #32
 800122a:	bd10      	pop	{r4, pc}
 800122c:	200040e8 	.word	0x200040e8
 8001230:	40001800 	.word	0x40001800

08001234 <__io_putchar>:
 8001234:	b507      	push	{r0, r1, r2, lr}
 8001236:	a902      	add	r1, sp, #8
 8001238:	f64f 73ff 	movw	r3, #65535	; 0xffff
 800123c:	f841 0d04 	str.w	r0, [r1, #-4]!
 8001240:	2201      	movs	r2, #1
 8001242:	4803      	ldr	r0, [pc, #12]	; (8001250 <__io_putchar+0x1c>)
 8001244:	f001 fb70 	bl	8002928 <HAL_UART_Transmit>
 8001248:	9801      	ldr	r0, [sp, #4]
 800124a:	b003      	add	sp, #12
 800124c:	f85d fb04 	ldr.w	pc, [sp], #4
 8001250:	20004174 	.word	0x20004174

08001254 <MX_UART7_Init>:
 8001254:	480b      	ldr	r0, [pc, #44]	; (8001284 <MX_UART7_Init+0x30>)
 8001256:	4a0c      	ldr	r2, [pc, #48]	; (8001288 <MX_UART7_Init+0x34>)
 8001258:	b508      	push	{r3, lr}
 800125a:	f44f 33e1 	mov.w	r3, #115200	; 0x1c200
 800125e:	e9c0 2300 	strd	r2, r3, [r0]
 8001262:	2300      	movs	r3, #0
 8001264:	220c      	movs	r2, #12
 8001266:	e9c0 3302 	strd	r3, r3, [r0, #8]
 800126a:	6103      	str	r3, [r0, #16]
 800126c:	e9c0 2305 	strd	r2, r3, [r0, #20]
 8001270:	61c3      	str	r3, [r0, #28]
 8001272:	f001 fb2b 	bl	80028cc <HAL_UART_Init>
 8001276:	b118      	cbz	r0, 8001280 <MX_UART7_Init+0x2c>
 8001278:	e8bd 4008 	ldmia.w	sp!, {r3, lr}
 800127c:	f7ff be2a 	b.w	8000ed4 <Error_Handler>
 8001280:	bd08      	pop	{r3, pc}
 8001282:	bf00      	nop
 8001284:	20004174 	.word	0x20004174
 8001288:	40007800 	.word	0x40007800

0800128c <HAL_UART_MspInit>:
 800128c:	b510      	push	{r4, lr}
 800128e:	4604      	mov	r4, r0
 8001290:	b088      	sub	sp, #32
 8001292:	2214      	movs	r2, #20
 8001294:	2100      	movs	r1, #0
 8001296:	a803      	add	r0, sp, #12
 8001298:	f002 fa24 	bl	80036e4 <memset>
 800129c:	6822      	ldr	r2, [r4, #0]
 800129e:	4b15      	ldr	r3, [pc, #84]	; (80012f4 <HAL_UART_MspInit+0x68>)
 80012a0:	429a      	cmp	r2, r3
 80012a2:	d125      	bne.n	80012f0 <HAL_UART_MspInit+0x64>
 80012a4:	f503 33e0 	add.w	r3, r3, #114688	; 0x1c000
 80012a8:	2100      	movs	r1, #0
 80012aa:	9101      	str	r1, [sp, #4]
 80012ac:	6c1a      	ldr	r2, [r3, #64]	; 0x40
 80012ae:	4812      	ldr	r0, [pc, #72]	; (80012f8 <HAL_UART_MspInit+0x6c>)
 80012b0:	f042 4280 	orr.w	r2, r2, #1073741824	; 0x40000000
 80012b4:	641a      	str	r2, [r3, #64]	; 0x40
 80012b6:	6c1a      	ldr	r2, [r3, #64]	; 0x40
 80012b8:	f002 4280 	and.w	r2, r2, #1073741824	; 0x40000000
 80012bc:	9201      	str	r2, [sp, #4]
 80012be:	9a01      	ldr	r2, [sp, #4]
 80012c0:	9102      	str	r1, [sp, #8]
 80012c2:	6b1a      	ldr	r2, [r3, #48]	; 0x30
 80012c4:	f042 0210 	orr.w	r2, r2, #16
 80012c8:	631a      	str	r2, [r3, #48]	; 0x30
 80012ca:	6b1b      	ldr	r3, [r3, #48]	; 0x30
 80012cc:	f003 0310 	and.w	r3, r3, #16
 80012d0:	9302      	str	r3, [sp, #8]
 80012d2:	9b02      	ldr	r3, [sp, #8]
 80012d4:	f44f 72c0 	mov.w	r2, #384	; 0x180
 80012d8:	2302      	movs	r3, #2
 80012da:	2101      	movs	r1, #1
 80012dc:	e9cd 2303 	strd	r2, r3, [sp, #12]
 80012e0:	2303      	movs	r3, #3
 80012e2:	e9cd 1305 	strd	r1, r3, [sp, #20]
 80012e6:	2308      	movs	r3, #8
 80012e8:	a903      	add	r1, sp, #12
 80012ea:	9307      	str	r3, [sp, #28]
 80012ec:	f000 fbba 	bl	8001a64 <HAL_GPIO_Init>
 80012f0:	b008      	add	sp, #32
 80012f2:	bd10      	pop	{r4, pc}
 80012f4:	40007800 	.word	0x40007800
 80012f8:	40021000 	.word	0x40021000

080012fc <Reset_Handler>:
 80012fc:	f8df d034 	ldr.w	sp, [pc, #52]	; 8001334 <LoopFillZerobss+0x14>
 8001300:	2100      	movs	r1, #0
 8001302:	e003      	b.n	800130c <LoopCopyDataInit>

08001304 <CopyDataInit>:
 8001304:	4b0c      	ldr	r3, [pc, #48]	; (8001338 <LoopFillZerobss+0x18>)
 8001306:	585b      	ldr	r3, [r3, r1]
 8001308:	5043      	str	r3, [r0, r1]
 800130a:	3104      	adds	r1, #4

0800130c <LoopCopyDataInit>:
 800130c:	480b      	ldr	r0, [pc, #44]	; (800133c <LoopFillZerobss+0x1c>)
 800130e:	4b0c      	ldr	r3, [pc, #48]	; (8001340 <LoopFillZerobss+0x20>)
 8001310:	1842      	adds	r2, r0, r1
 8001312:	429a      	cmp	r2, r3
 8001314:	d3f6      	bcc.n	8001304 <CopyDataInit>
 8001316:	4a0b      	ldr	r2, [pc, #44]	; (8001344 <LoopFillZerobss+0x24>)
 8001318:	e002      	b.n	8001320 <LoopFillZerobss>

0800131a <FillZerobss>:
 800131a:	2300      	movs	r3, #0
 800131c:	f842 3b04 	str.w	r3, [r2], #4

08001320 <LoopFillZerobss>:
 8001320:	4b09      	ldr	r3, [pc, #36]	; (8001348 <LoopFillZerobss+0x28>)
 8001322:	429a      	cmp	r2, r3
 8001324:	d3f9      	bcc.n	800131a <FillZerobss>
 8001326:	f7ff fe95 	bl	8001054 <SystemInit>
 800132a:	f002 f9b7 	bl	800369c <__libc_init_array>
 800132e:	f7ff fdab 	bl	8000e88 <main>
 8001332:	4770      	bx	lr
 8001334:	20030000 	.word	0x20030000
 8001338:	080047d0 	.word	0x080047d0
 800133c:	20000000 	.word	0x20000000
 8001340:	20000074 	.word	0x20000074
 8001344:	20000074 	.word	0x20000074
 8001348:	200041bc 	.word	0x200041bc

0800134c <ADC_IRQHandler>:
 800134c:	e7fe      	b.n	800134c <ADC_IRQHandler>
	...

08001350 <HAL_Init>:
 8001350:	b508      	push	{r3, lr}
 8001352:	4b0b      	ldr	r3, [pc, #44]	; (8001380 <HAL_Init+0x30>)
 8001354:	681a      	ldr	r2, [r3, #0]
 8001356:	f442 7200 	orr.w	r2, r2, #512	; 0x200
 800135a:	601a      	str	r2, [r3, #0]
 800135c:	681a      	ldr	r2, [r3, #0]
 800135e:	f442 6280 	orr.w	r2, r2, #1024	; 0x400
 8001362:	601a      	str	r2, [r3, #0]
 8001364:	681a      	ldr	r2, [r3, #0]
 8001366:	f442 7280 	orr.w	r2, r2, #256	; 0x100
 800136a:	601a      	str	r2, [r3, #0]
 800136c:	2003      	movs	r0, #3
 800136e:	f000 fb25 	bl	80019bc <HAL_NVIC_SetPriorityGrouping>
 8001372:	2000      	movs	r0, #0
 8001374:	f7ff fdd0 	bl	8000f18 <HAL_InitTick>
 8001378:	f7ff fdae 	bl	8000ed8 <HAL_MspInit>
 800137c:	2000      	movs	r0, #0
 800137e:	bd08      	pop	{r3, pc}
 8001380:	40023c00 	.word	0x40023c00

08001384 <HAL_IncTick>:
 8001384:	4a03      	ldr	r2, [pc, #12]	; (8001394 <HAL_IncTick+0x10>)
 8001386:	4b04      	ldr	r3, [pc, #16]	; (8001398 <HAL_IncTick+0x14>)
 8001388:	6811      	ldr	r1, [r2, #0]
 800138a:	781b      	ldrb	r3, [r3, #0]
 800138c:	440b      	add	r3, r1
 800138e:	6013      	str	r3, [r2, #0]
 8001390:	4770      	bx	lr
 8001392:	bf00      	nop
 8001394:	200041b4 	.word	0x200041b4
 8001398:	20000004 	.word	0x20000004

0800139c <HAL_GetTick>:
 800139c:	4b01      	ldr	r3, [pc, #4]	; (80013a4 <HAL_GetTick+0x8>)
 800139e:	6818      	ldr	r0, [r3, #0]
 80013a0:	4770      	bx	lr
 80013a2:	bf00      	nop
 80013a4:	200041b4 	.word	0x200041b4

080013a8 <HAL_CAN_Init>:
 80013a8:	b538      	push	{r3, r4, r5, lr}
 80013aa:	4604      	mov	r4, r0
 80013ac:	2800      	cmp	r0, #0
 80013ae:	d06e      	beq.n	800148e <HAL_CAN_Init+0xe6>
 80013b0:	f890 3020 	ldrb.w	r3, [r0, #32]
 80013b4:	b90b      	cbnz	r3, 80013ba <HAL_CAN_Init+0x12>
 80013b6:	f7ff fbd7 	bl	8000b68 <HAL_CAN_MspInit>
 80013ba:	6822      	ldr	r2, [r4, #0]
 80013bc:	6813      	ldr	r3, [r2, #0]
 80013be:	f023 0302 	bic.w	r3, r3, #2
 80013c2:	6013      	str	r3, [r2, #0]
 80013c4:	f7ff ffea 	bl	800139c <HAL_GetTick>
 80013c8:	4605      	mov	r5, r0
 80013ca:	6823      	ldr	r3, [r4, #0]
 80013cc:	685a      	ldr	r2, [r3, #4]
 80013ce:	0791      	lsls	r1, r2, #30
 80013d0:	d451      	bmi.n	8001476 <HAL_CAN_Init+0xce>
 80013d2:	681a      	ldr	r2, [r3, #0]
 80013d4:	f042 0201 	orr.w	r2, r2, #1
 80013d8:	601a      	str	r2, [r3, #0]
 80013da:	f7ff ffdf 	bl	800139c <HAL_GetTick>
 80013de:	4605      	mov	r5, r0
 80013e0:	6823      	ldr	r3, [r4, #0]
 80013e2:	685a      	ldr	r2, [r3, #4]
 80013e4:	07d2      	lsls	r2, r2, #31
 80013e6:	d554      	bpl.n	8001492 <HAL_CAN_Init+0xea>
 80013e8:	7e22      	ldrb	r2, [r4, #24]
 80013ea:	2a01      	cmp	r2, #1
 80013ec:	681a      	ldr	r2, [r3, #0]
 80013ee:	bf0c      	ite	eq
 80013f0:	f042 0280 	orreq.w	r2, r2, #128	; 0x80
 80013f4:	f022 0280 	bicne.w	r2, r2, #128	; 0x80
 80013f8:	601a      	str	r2, [r3, #0]
 80013fa:	7e62      	ldrb	r2, [r4, #25]
 80013fc:	2a01      	cmp	r2, #1
 80013fe:	681a      	ldr	r2, [r3, #0]
 8001400:	bf0c      	ite	eq
 8001402:	f042 0240 	orreq.w	r2, r2, #64	; 0x40
 8001406:	f022 0240 	bicne.w	r2, r2, #64	; 0x40
 800140a:	601a      	str	r2, [r3, #0]
 800140c:	7ea2      	ldrb	r2, [r4, #26]
 800140e:	2a01      	cmp	r2, #1
 8001410:	681a      	ldr	r2, [r3, #0]
 8001412:	bf0c      	ite	eq
 8001414:	f042 0220 	orreq.w	r2, r2, #32
 8001418:	f022 0220 	bicne.w	r2, r2, #32
 800141c:	601a      	str	r2, [r3, #0]
 800141e:	7ee2      	ldrb	r2, [r4, #27]
 8001420:	2a01      	cmp	r2, #1
 8001422:	681a      	ldr	r2, [r3, #0]
 8001424:	bf0c      	ite	eq
 8001426:	f022 0210 	biceq.w	r2, r2, #16
 800142a:	f042 0210 	orrne.w	r2, r2, #16
 800142e:	601a      	str	r2, [r3, #0]
 8001430:	7f22      	ldrb	r2, [r4, #28]
 8001432:	2a01      	cmp	r2, #1
 8001434:	681a      	ldr	r2, [r3, #0]
 8001436:	bf0c      	ite	eq
 8001438:	f042 0208 	orreq.w	r2, r2, #8
 800143c:	f022 0208 	bicne.w	r2, r2, #8
 8001440:	601a      	str	r2, [r3, #0]
 8001442:	7f62      	ldrb	r2, [r4, #29]
 8001444:	2a01      	cmp	r2, #1
 8001446:	681a      	ldr	r2, [r3, #0]
 8001448:	bf0c      	ite	eq
 800144a:	f042 0204 	orreq.w	r2, r2, #4
 800144e:	f022 0204 	bicne.w	r2, r2, #4
 8001452:	601a      	str	r2, [r3, #0]
 8001454:	e9d4 2102 	ldrd	r2, r1, [r4, #8]
 8001458:	430a      	orrs	r2, r1
 800145a:	6921      	ldr	r1, [r4, #16]
 800145c:	430a      	orrs	r2, r1
 800145e:	6961      	ldr	r1, [r4, #20]
 8001460:	430a      	orrs	r2, r1
 8001462:	6861      	ldr	r1, [r4, #4]
 8001464:	3901      	subs	r1, #1
 8001466:	430a      	orrs	r2, r1
 8001468:	61da      	str	r2, [r3, #28]
 800146a:	2000      	movs	r0, #0
 800146c:	2301      	movs	r3, #1
 800146e:	6260      	str	r0, [r4, #36]	; 0x24
 8001470:	f884 3020 	strb.w	r3, [r4, #32]
 8001474:	bd38      	pop	{r3, r4, r5, pc}
 8001476:	f7ff ff91 	bl	800139c <HAL_GetTick>
 800147a:	1b40      	subs	r0, r0, r5
 800147c:	280a      	cmp	r0, #10
 800147e:	d9a4      	bls.n	80013ca <HAL_CAN_Init+0x22>
 8001480:	6a63      	ldr	r3, [r4, #36]	; 0x24
 8001482:	f443 3300 	orr.w	r3, r3, #131072	; 0x20000
 8001486:	6263      	str	r3, [r4, #36]	; 0x24
 8001488:	2305      	movs	r3, #5
 800148a:	f884 3020 	strb.w	r3, [r4, #32]
 800148e:	2001      	movs	r0, #1
 8001490:	e7f0      	b.n	8001474 <HAL_CAN_Init+0xcc>
 8001492:	f7ff ff83 	bl	800139c <HAL_GetTick>
 8001496:	1b40      	subs	r0, r0, r5
 8001498:	280a      	cmp	r0, #10
 800149a:	d9a1      	bls.n	80013e0 <HAL_CAN_Init+0x38>
 800149c:	e7f0      	b.n	8001480 <HAL_CAN_Init+0xd8>
	...

080014a0 <HAL_CAN_ConfigFilter>:
 80014a0:	f890 3020 	ldrb.w	r3, [r0, #32]
 80014a4:	3b01      	subs	r3, #1
 80014a6:	2b01      	cmp	r3, #1
 80014a8:	b530      	push	{r4, r5, lr}
 80014aa:	d874      	bhi.n	8001596 <HAL_CAN_ConfigFilter+0xf6>
 80014ac:	4b3d      	ldr	r3, [pc, #244]	; (80015a4 <HAL_CAN_ConfigFilter+0x104>)
 80014ae:	f8d3 2200 	ldr.w	r2, [r3, #512]	; 0x200
 80014b2:	f042 0201 	orr.w	r2, r2, #1
 80014b6:	f8c3 2200 	str.w	r2, [r3, #512]	; 0x200
 80014ba:	f8d3 2200 	ldr.w	r2, [r3, #512]	; 0x200
 80014be:	f422 527c 	bic.w	r2, r2, #16128	; 0x3f00
 80014c2:	f8c3 2200 	str.w	r2, [r3, #512]	; 0x200
 80014c6:	f8d3 2200 	ldr.w	r2, [r3, #512]	; 0x200
 80014ca:	6a48      	ldr	r0, [r1, #36]	; 0x24
 80014cc:	ea42 2200 	orr.w	r2, r2, r0, lsl #8
 80014d0:	f8c3 2200 	str.w	r2, [r3, #512]	; 0x200
 80014d4:	6948      	ldr	r0, [r1, #20]
 80014d6:	f8d3 521c 	ldr.w	r5, [r3, #540]	; 0x21c
 80014da:	f000 021f 	and.w	r2, r0, #31
 80014de:	2401      	movs	r4, #1
 80014e0:	4094      	lsls	r4, r2
 80014e2:	43e2      	mvns	r2, r4
 80014e4:	4015      	ands	r5, r2
 80014e6:	f8c3 521c 	str.w	r5, [r3, #540]	; 0x21c
 80014ea:	69cd      	ldr	r5, [r1, #28]
 80014ec:	2d00      	cmp	r5, #0
 80014ee:	d135      	bne.n	800155c <HAL_CAN_ConfigFilter+0xbc>
 80014f0:	f8d3 520c 	ldr.w	r5, [r3, #524]	; 0x20c
 80014f4:	4015      	ands	r5, r2
 80014f6:	f8c3 520c 	str.w	r5, [r3, #524]	; 0x20c
 80014fa:	68cb      	ldr	r3, [r1, #12]
 80014fc:	888d      	ldrh	r5, [r1, #4]
 80014fe:	ea45 4503 	orr.w	r5, r5, r3, lsl #16
 8001502:	00c3      	lsls	r3, r0, #3
 8001504:	f103 4380 	add.w	r3, r3, #1073741824	; 0x40000000
 8001508:	f503 43c8 	add.w	r3, r3, #25600	; 0x6400
 800150c:	8808      	ldrh	r0, [r1, #0]
 800150e:	f8c3 5240 	str.w	r5, [r3, #576]	; 0x240
 8001512:	688d      	ldr	r5, [r1, #8]
 8001514:	ea40 4005 	orr.w	r0, r0, r5, lsl #16
 8001518:	f8c3 0244 	str.w	r0, [r3, #580]	; 0x244
 800151c:	6988      	ldr	r0, [r1, #24]
 800151e:	4b21      	ldr	r3, [pc, #132]	; (80015a4 <HAL_CAN_ConfigFilter+0x104>)
 8001520:	bb88      	cbnz	r0, 8001586 <HAL_CAN_ConfigFilter+0xe6>
 8001522:	f8d3 0204 	ldr.w	r0, [r3, #516]	; 0x204
 8001526:	4010      	ands	r0, r2
 8001528:	f8c3 0204 	str.w	r0, [r3, #516]	; 0x204
 800152c:	6908      	ldr	r0, [r1, #16]
 800152e:	bb70      	cbnz	r0, 800158e <HAL_CAN_ConfigFilter+0xee>
 8001530:	f8d3 0214 	ldr.w	r0, [r3, #532]	; 0x214
 8001534:	4002      	ands	r2, r0
 8001536:	f8c3 2214 	str.w	r2, [r3, #532]	; 0x214
 800153a:	6a0b      	ldr	r3, [r1, #32]
 800153c:	2b01      	cmp	r3, #1
 800153e:	4b19      	ldr	r3, [pc, #100]	; (80015a4 <HAL_CAN_ConfigFilter+0x104>)
 8001540:	bf02      	ittt	eq
 8001542:	f8d3 221c 	ldreq.w	r2, [r3, #540]	; 0x21c
 8001546:	4314      	orreq	r4, r2
 8001548:	f8c3 421c 	streq.w	r4, [r3, #540]	; 0x21c
 800154c:	f8d3 2200 	ldr.w	r2, [r3, #512]	; 0x200
 8001550:	f022 0201 	bic.w	r2, r2, #1
 8001554:	f8c3 2200 	str.w	r2, [r3, #512]	; 0x200
 8001558:	2000      	movs	r0, #0
 800155a:	bd30      	pop	{r4, r5, pc}
 800155c:	2d01      	cmp	r5, #1
 800155e:	d1dd      	bne.n	800151c <HAL_CAN_ConfigFilter+0x7c>
 8001560:	f8d3 520c 	ldr.w	r5, [r3, #524]	; 0x20c
 8001564:	4325      	orrs	r5, r4
 8001566:	f8c3 520c 	str.w	r5, [r3, #524]	; 0x20c
 800156a:	680b      	ldr	r3, [r1, #0]
 800156c:	888d      	ldrh	r5, [r1, #4]
 800156e:	ea45 4503 	orr.w	r5, r5, r3, lsl #16
 8001572:	00c3      	lsls	r3, r0, #3
 8001574:	f103 4380 	add.w	r3, r3, #1073741824	; 0x40000000
 8001578:	f503 43c8 	add.w	r3, r3, #25600	; 0x6400
 800157c:	8988      	ldrh	r0, [r1, #12]
 800157e:	f8c3 5240 	str.w	r5, [r3, #576]	; 0x240
 8001582:	688d      	ldr	r5, [r1, #8]
 8001584:	e7c6      	b.n	8001514 <HAL_CAN_ConfigFilter+0x74>
 8001586:	f8d3 0204 	ldr.w	r0, [r3, #516]	; 0x204
 800158a:	4320      	orrs	r0, r4
 800158c:	e7cc      	b.n	8001528 <HAL_CAN_ConfigFilter+0x88>
 800158e:	f8d3 2214 	ldr.w	r2, [r3, #532]	; 0x214
 8001592:	4322      	orrs	r2, r4
 8001594:	e7cf      	b.n	8001536 <HAL_CAN_ConfigFilter+0x96>
 8001596:	6a43      	ldr	r3, [r0, #36]	; 0x24
 8001598:	f443 2380 	orr.w	r3, r3, #262144	; 0x40000
 800159c:	6243      	str	r3, [r0, #36]	; 0x24
 800159e:	2001      	movs	r0, #1
 80015a0:	e7db      	b.n	800155a <HAL_CAN_ConfigFilter+0xba>
 80015a2:	bf00      	nop
 80015a4:	40006400 	.word	0x40006400

080015a8 <HAL_CAN_Start>:
 80015a8:	b538      	push	{r3, r4, r5, lr}
 80015aa:	f890 3020 	ldrb.w	r3, [r0, #32]
 80015ae:	2b01      	cmp	r3, #1
 80015b0:	4604      	mov	r4, r0
 80015b2:	d11f      	bne.n	80015f4 <HAL_CAN_Start+0x4c>
 80015b4:	6802      	ldr	r2, [r0, #0]
 80015b6:	2302      	movs	r3, #2
 80015b8:	f880 3020 	strb.w	r3, [r0, #32]
 80015bc:	6813      	ldr	r3, [r2, #0]
 80015be:	f023 0301 	bic.w	r3, r3, #1
 80015c2:	6013      	str	r3, [r2, #0]
 80015c4:	f7ff feea 	bl	800139c <HAL_GetTick>
 80015c8:	4605      	mov	r5, r0
 80015ca:	6823      	ldr	r3, [r4, #0]
 80015cc:	6858      	ldr	r0, [r3, #4]
 80015ce:	f010 0001 	ands.w	r0, r0, #1
 80015d2:	d101      	bne.n	80015d8 <HAL_CAN_Start+0x30>
 80015d4:	6260      	str	r0, [r4, #36]	; 0x24
 80015d6:	bd38      	pop	{r3, r4, r5, pc}
 80015d8:	f7ff fee0 	bl	800139c <HAL_GetTick>
 80015dc:	1b40      	subs	r0, r0, r5
 80015de:	280a      	cmp	r0, #10
 80015e0:	d9f3      	bls.n	80015ca <HAL_CAN_Start+0x22>
 80015e2:	6a63      	ldr	r3, [r4, #36]	; 0x24
 80015e4:	f443 3300 	orr.w	r3, r3, #131072	; 0x20000
 80015e8:	6263      	str	r3, [r4, #36]	; 0x24
 80015ea:	2305      	movs	r3, #5
 80015ec:	f884 3020 	strb.w	r3, [r4, #32]
 80015f0:	2001      	movs	r0, #1
 80015f2:	e7f0      	b.n	80015d6 <HAL_CAN_Start+0x2e>
 80015f4:	6a43      	ldr	r3, [r0, #36]	; 0x24
 80015f6:	f443 2300 	orr.w	r3, r3, #524288	; 0x80000
 80015fa:	6243      	str	r3, [r0, #36]	; 0x24
 80015fc:	e7f8      	b.n	80015f0 <HAL_CAN_Start+0x48>

080015fe <HAL_CAN_AddTxMessage>:
 80015fe:	b5f0      	push	{r4, r5, r6, r7, lr}
 8001600:	f890 5020 	ldrb.w	r5, [r0, #32]
 8001604:	6806      	ldr	r6, [r0, #0]
 8001606:	3d01      	subs	r5, #1
 8001608:	2d01      	cmp	r5, #1
 800160a:	68b4      	ldr	r4, [r6, #8]
 800160c:	d840      	bhi.n	8001690 <HAL_CAN_AddTxMessage+0x92>
 800160e:	f014 5fe0 	tst.w	r4, #469762048	; 0x1c000000
 8001612:	d039      	beq.n	8001688 <HAL_CAN_AddTxMessage+0x8a>
 8001614:	f3c4 6401 	ubfx	r4, r4, #24, #2
 8001618:	2c03      	cmp	r4, #3
 800161a:	f04f 0501 	mov.w	r5, #1
 800161e:	d105      	bne.n	800162c <HAL_CAN_AddTxMessage+0x2e>
 8001620:	6a43      	ldr	r3, [r0, #36]	; 0x24
 8001622:	f443 0300 	orr.w	r3, r3, #8388608	; 0x800000
 8001626:	6243      	str	r3, [r0, #36]	; 0x24
 8001628:	2001      	movs	r0, #1
 800162a:	e027      	b.n	800167c <HAL_CAN_AddTxMessage+0x7e>
 800162c:	40a5      	lsls	r5, r4
 800162e:	601d      	str	r5, [r3, #0]
 8001630:	e9d1 0702 	ldrd	r0, r7, [r1, #8]
 8001634:	f104 0318 	add.w	r3, r4, #24
 8001638:	bb08      	cbnz	r0, 800167e <HAL_CAN_AddTxMessage+0x80>
 800163a:	6808      	ldr	r0, [r1, #0]
 800163c:	ea47 5040 	orr.w	r0, r7, r0, lsl #21
 8001640:	011b      	lsls	r3, r3, #4
 8001642:	0124      	lsls	r4, r4, #4
 8001644:	50f0      	str	r0, [r6, r3]
 8001646:	1933      	adds	r3, r6, r4
 8001648:	6908      	ldr	r0, [r1, #16]
 800164a:	7d09      	ldrb	r1, [r1, #20]
 800164c:	f8c3 0184 	str.w	r0, [r3, #388]	; 0x184
 8001650:	2901      	cmp	r1, #1
 8001652:	bf02      	ittt	eq
 8001654:	f8d3 1184 	ldreq.w	r1, [r3, #388]	; 0x184
 8001658:	f441 7180 	orreq.w	r1, r1, #256	; 0x100
 800165c:	f8c3 1184 	streq.w	r1, [r3, #388]	; 0x184
 8001660:	4434      	add	r4, r6
 8001662:	6851      	ldr	r1, [r2, #4]
 8001664:	f8c4 118c 	str.w	r1, [r4, #396]	; 0x18c
 8001668:	6812      	ldr	r2, [r2, #0]
 800166a:	f8c4 2188 	str.w	r2, [r4, #392]	; 0x188
 800166e:	f8d3 2180 	ldr.w	r2, [r3, #384]	; 0x180
 8001672:	f042 0201 	orr.w	r2, r2, #1
 8001676:	f8c3 2180 	str.w	r2, [r3, #384]	; 0x180
 800167a:	2000      	movs	r0, #0
 800167c:	bdf0      	pop	{r4, r5, r6, r7, pc}
 800167e:	684d      	ldr	r5, [r1, #4]
 8001680:	4338      	orrs	r0, r7
 8001682:	ea40 00c5 	orr.w	r0, r0, r5, lsl #3
 8001686:	e7db      	b.n	8001640 <HAL_CAN_AddTxMessage+0x42>
 8001688:	6a43      	ldr	r3, [r0, #36]	; 0x24
 800168a:	f443 1300 	orr.w	r3, r3, #2097152	; 0x200000
 800168e:	e7ca      	b.n	8001626 <HAL_CAN_AddTxMessage+0x28>
 8001690:	6a43      	ldr	r3, [r0, #36]	; 0x24
 8001692:	f443 2380 	orr.w	r3, r3, #262144	; 0x40000
 8001696:	e7c6      	b.n	8001626 <HAL_CAN_AddTxMessage+0x28>

08001698 <HAL_CAN_GetRxMessage>:
 8001698:	b5f0      	push	{r4, r5, r6, r7, lr}
 800169a:	f890 4020 	ldrb.w	r4, [r0, #32]
 800169e:	3c01      	subs	r4, #1
 80016a0:	2c01      	cmp	r4, #1
 80016a2:	d86b      	bhi.n	800177c <HAL_CAN_GetRxMessage+0xe4>
 80016a4:	6806      	ldr	r6, [r0, #0]
 80016a6:	b941      	cbnz	r1, 80016ba <HAL_CAN_GetRxMessage+0x22>
 80016a8:	68f4      	ldr	r4, [r6, #12]
 80016aa:	07a4      	lsls	r4, r4, #30
 80016ac:	d107      	bne.n	80016be <HAL_CAN_GetRxMessage+0x26>
 80016ae:	6a43      	ldr	r3, [r0, #36]	; 0x24
 80016b0:	f443 1300 	orr.w	r3, r3, #2097152	; 0x200000
 80016b4:	6243      	str	r3, [r0, #36]	; 0x24
 80016b6:	2001      	movs	r0, #1
 80016b8:	e055      	b.n	8001766 <HAL_CAN_GetRxMessage+0xce>
 80016ba:	6934      	ldr	r4, [r6, #16]
 80016bc:	e7f5      	b.n	80016aa <HAL_CAN_GetRxMessage+0x12>
 80016be:	010c      	lsls	r4, r1, #4
 80016c0:	1935      	adds	r5, r6, r4
 80016c2:	f8d5 71b0 	ldr.w	r7, [r5, #432]	; 0x1b0
 80016c6:	f007 0704 	and.w	r7, r7, #4
 80016ca:	6097      	str	r7, [r2, #8]
 80016cc:	2f00      	cmp	r7, #0
 80016ce:	d14b      	bne.n	8001768 <HAL_CAN_GetRxMessage+0xd0>
 80016d0:	f8d5 71b0 	ldr.w	r7, [r5, #432]	; 0x1b0
 80016d4:	0d7f      	lsrs	r7, r7, #21
 80016d6:	6017      	str	r7, [r2, #0]
 80016d8:	f8d5 71b0 	ldr.w	r7, [r5, #432]	; 0x1b0
 80016dc:	f007 0702 	and.w	r7, r7, #2
 80016e0:	60d7      	str	r7, [r2, #12]
 80016e2:	f8d5 71b4 	ldr.w	r7, [r5, #436]	; 0x1b4
 80016e6:	f007 070f 	and.w	r7, r7, #15
 80016ea:	6117      	str	r7, [r2, #16]
 80016ec:	f8d5 71b4 	ldr.w	r7, [r5, #436]	; 0x1b4
 80016f0:	f8d5 51b4 	ldr.w	r5, [r5, #436]	; 0x1b4
 80016f4:	4426      	add	r6, r4
 80016f6:	f3c7 2707 	ubfx	r7, r7, #8, #8
 80016fa:	0c2d      	lsrs	r5, r5, #16
 80016fc:	6197      	str	r7, [r2, #24]
 80016fe:	6155      	str	r5, [r2, #20]
 8001700:	f8d6 21b8 	ldr.w	r2, [r6, #440]	; 0x1b8
 8001704:	701a      	strb	r2, [r3, #0]
 8001706:	6802      	ldr	r2, [r0, #0]
 8001708:	4422      	add	r2, r4
 800170a:	f8d2 21b8 	ldr.w	r2, [r2, #440]	; 0x1b8
 800170e:	0a12      	lsrs	r2, r2, #8
 8001710:	705a      	strb	r2, [r3, #1]
 8001712:	6802      	ldr	r2, [r0, #0]
 8001714:	4422      	add	r2, r4
 8001716:	f8d2 21b8 	ldr.w	r2, [r2, #440]	; 0x1b8
 800171a:	0c12      	lsrs	r2, r2, #16
 800171c:	709a      	strb	r2, [r3, #2]
 800171e:	6802      	ldr	r2, [r0, #0]
 8001720:	4422      	add	r2, r4
 8001722:	f8d2 21b8 	ldr.w	r2, [r2, #440]	; 0x1b8
 8001726:	0e12      	lsrs	r2, r2, #24
 8001728:	70da      	strb	r2, [r3, #3]
 800172a:	6802      	ldr	r2, [r0, #0]
 800172c:	4422      	add	r2, r4
 800172e:	f8d2 21bc 	ldr.w	r2, [r2, #444]	; 0x1bc
 8001732:	711a      	strb	r2, [r3, #4]
 8001734:	6802      	ldr	r2, [r0, #0]
 8001736:	4422      	add	r2, r4
 8001738:	f8d2 21bc 	ldr.w	r2, [r2, #444]	; 0x1bc
 800173c:	0a12      	lsrs	r2, r2, #8
 800173e:	715a      	strb	r2, [r3, #5]
 8001740:	6802      	ldr	r2, [r0, #0]
 8001742:	4422      	add	r2, r4
 8001744:	f8d2 21bc 	ldr.w	r2, [r2, #444]	; 0x1bc
 8001748:	0c12      	lsrs	r2, r2, #16
 800174a:	719a      	strb	r2, [r3, #6]
 800174c:	6802      	ldr	r2, [r0, #0]
 800174e:	4414      	add	r4, r2
 8001750:	f8d4 21bc 	ldr.w	r2, [r4, #444]	; 0x1bc
 8001754:	0e12      	lsrs	r2, r2, #24
 8001756:	71da      	strb	r2, [r3, #7]
 8001758:	6803      	ldr	r3, [r0, #0]
 800175a:	b951      	cbnz	r1, 8001772 <HAL_CAN_GetRxMessage+0xda>
 800175c:	68da      	ldr	r2, [r3, #12]
 800175e:	f042 0220 	orr.w	r2, r2, #32
 8001762:	60da      	str	r2, [r3, #12]
 8001764:	2000      	movs	r0, #0
 8001766:	bdf0      	pop	{r4, r5, r6, r7, pc}
 8001768:	f8d5 71b0 	ldr.w	r7, [r5, #432]	; 0x1b0
 800176c:	08ff      	lsrs	r7, r7, #3
 800176e:	6057      	str	r7, [r2, #4]
 8001770:	e7b2      	b.n	80016d8 <HAL_CAN_GetRxMessage+0x40>
 8001772:	691a      	ldr	r2, [r3, #16]
 8001774:	f042 0220 	orr.w	r2, r2, #32
 8001778:	611a      	str	r2, [r3, #16]
 800177a:	e7f3      	b.n	8001764 <HAL_CAN_GetRxMessage+0xcc>
 800177c:	6a43      	ldr	r3, [r0, #36]	; 0x24
 800177e:	f443 2380 	orr.w	r3, r3, #262144	; 0x40000
 8001782:	e797      	b.n	80016b4 <HAL_CAN_GetRxMessage+0x1c>

08001784 <HAL_CAN_ActivateNotification>:
 8001784:	f890 3020 	ldrb.w	r3, [r0, #32]
 8001788:	3b01      	subs	r3, #1
 800178a:	2b01      	cmp	r3, #1
 800178c:	d805      	bhi.n	800179a <HAL_CAN_ActivateNotification+0x16>
 800178e:	6802      	ldr	r2, [r0, #0]
 8001790:	6953      	ldr	r3, [r2, #20]
 8001792:	4319      	orrs	r1, r3
 8001794:	6151      	str	r1, [r2, #20]
 8001796:	2000      	movs	r0, #0
 8001798:	4770      	bx	lr
 800179a:	6a43      	ldr	r3, [r0, #36]	; 0x24
 800179c:	f443 2380 	orr.w	r3, r3, #262144	; 0x40000
 80017a0:	6243      	str	r3, [r0, #36]	; 0x24
 80017a2:	2001      	movs	r0, #1
 80017a4:	4770      	bx	lr

080017a6 <HAL_CAN_TxMailbox0CompleteCallback>:
 80017a6:	4770      	bx	lr

080017a8 <HAL_CAN_TxMailbox1CompleteCallback>:
 80017a8:	4770      	bx	lr

080017aa <HAL_CAN_TxMailbox2CompleteCallback>:
 80017aa:	4770      	bx	lr

080017ac <HAL_CAN_TxMailbox0AbortCallback>:
 80017ac:	4770      	bx	lr

080017ae <HAL_CAN_TxMailbox1AbortCallback>:
 80017ae:	4770      	bx	lr

080017b0 <HAL_CAN_TxMailbox2AbortCallback>:
 80017b0:	4770      	bx	lr

080017b2 <HAL_CAN_RxFifo0FullCallback>:
 80017b2:	4770      	bx	lr

080017b4 <HAL_CAN_RxFifo1MsgPendingCallback>:
 80017b4:	4770      	bx	lr

080017b6 <HAL_CAN_RxFifo1FullCallback>:
 80017b6:	4770      	bx	lr

080017b8 <HAL_CAN_SleepCallback>:
 80017b8:	4770      	bx	lr

080017ba <HAL_CAN_WakeUpFromRxMsgCallback>:
 80017ba:	4770      	bx	lr

080017bc <HAL_CAN_ErrorCallback>:
 80017bc:	4770      	bx	lr

080017be <HAL_CAN_IRQHandler>:
 80017be:	e92d 4ff8 	stmdb	sp!, {r3, r4, r5, r6, r7, r8, r9, sl, fp, lr}
 80017c2:	6803      	ldr	r3, [r0, #0]
 80017c4:	695e      	ldr	r6, [r3, #20]
 80017c6:	f8d3 9004 	ldr.w	r9, [r3, #4]
 80017ca:	689f      	ldr	r7, [r3, #8]
 80017cc:	f8d3 b00c 	ldr.w	fp, [r3, #12]
 80017d0:	f8d3 a010 	ldr.w	sl, [r3, #16]
 80017d4:	f8d3 8018 	ldr.w	r8, [r3, #24]
 80017d8:	f016 0401 	ands.w	r4, r6, #1
 80017dc:	4605      	mov	r5, r0
 80017de:	d022      	beq.n	8001826 <HAL_CAN_IRQHandler+0x68>
 80017e0:	f017 0401 	ands.w	r4, r7, #1
 80017e4:	d007      	beq.n	80017f6 <HAL_CAN_IRQHandler+0x38>
 80017e6:	2201      	movs	r2, #1
 80017e8:	07b9      	lsls	r1, r7, #30
 80017ea:	609a      	str	r2, [r3, #8]
 80017ec:	f140 80a3 	bpl.w	8001936 <HAL_CAN_IRQHandler+0x178>
 80017f0:	f7ff ffd9 	bl	80017a6 <HAL_CAN_TxMailbox0CompleteCallback>
 80017f4:	2400      	movs	r4, #0
 80017f6:	05fb      	lsls	r3, r7, #23
 80017f8:	d509      	bpl.n	800180e <HAL_CAN_IRQHandler+0x50>
 80017fa:	682b      	ldr	r3, [r5, #0]
 80017fc:	f44f 7280 	mov.w	r2, #256	; 0x100
 8001800:	05b8      	lsls	r0, r7, #22
 8001802:	609a      	str	r2, [r3, #8]
 8001804:	f140 80a5 	bpl.w	8001952 <HAL_CAN_IRQHandler+0x194>
 8001808:	4628      	mov	r0, r5
 800180a:	f7ff ffcd 	bl	80017a8 <HAL_CAN_TxMailbox1CompleteCallback>
 800180e:	03fb      	lsls	r3, r7, #15
 8001810:	d509      	bpl.n	8001826 <HAL_CAN_IRQHandler+0x68>
 8001812:	682b      	ldr	r3, [r5, #0]
 8001814:	f44f 3280 	mov.w	r2, #65536	; 0x10000
 8001818:	03b8      	lsls	r0, r7, #14
 800181a:	609a      	str	r2, [r3, #8]
 800181c:	f140 80a7 	bpl.w	800196e <HAL_CAN_IRQHandler+0x1b0>
 8001820:	4628      	mov	r0, r5
 8001822:	f7ff ffc2 	bl	80017aa <HAL_CAN_TxMailbox2CompleteCallback>
 8001826:	0733      	lsls	r3, r6, #28
 8001828:	d507      	bpl.n	800183a <HAL_CAN_IRQHandler+0x7c>
 800182a:	f01b 0f10 	tst.w	fp, #16
 800182e:	bf1f      	itttt	ne
 8001830:	682b      	ldrne	r3, [r5, #0]
 8001832:	2210      	movne	r2, #16
 8001834:	f444 7400 	orrne.w	r4, r4, #512	; 0x200
 8001838:	60da      	strne	r2, [r3, #12]
 800183a:	0777      	lsls	r7, r6, #29
 800183c:	d508      	bpl.n	8001850 <HAL_CAN_IRQHandler+0x92>
 800183e:	f01b 0f08 	tst.w	fp, #8
 8001842:	d005      	beq.n	8001850 <HAL_CAN_IRQHandler+0x92>
 8001844:	682b      	ldr	r3, [r5, #0]
 8001846:	2208      	movs	r2, #8
 8001848:	60da      	str	r2, [r3, #12]
 800184a:	4628      	mov	r0, r5
 800184c:	f7ff ffb1 	bl	80017b2 <HAL_CAN_RxFifo0FullCallback>
 8001850:	07b0      	lsls	r0, r6, #30
 8001852:	d506      	bpl.n	8001862 <HAL_CAN_IRQHandler+0xa4>
 8001854:	682b      	ldr	r3, [r5, #0]
 8001856:	68db      	ldr	r3, [r3, #12]
 8001858:	0799      	lsls	r1, r3, #30
 800185a:	d002      	beq.n	8001862 <HAL_CAN_IRQHandler+0xa4>
 800185c:	4628      	mov	r0, r5
 800185e:	f7ff f8e3 	bl	8000a28 <HAL_CAN_RxFifo0MsgPendingCallback>
 8001862:	0672      	lsls	r2, r6, #25
 8001864:	d507      	bpl.n	8001876 <HAL_CAN_IRQHandler+0xb8>
 8001866:	f01a 0f10 	tst.w	sl, #16
 800186a:	bf1f      	itttt	ne
 800186c:	682b      	ldrne	r3, [r5, #0]
 800186e:	2210      	movne	r2, #16
 8001870:	f444 6480 	orrne.w	r4, r4, #1024	; 0x400
 8001874:	611a      	strne	r2, [r3, #16]
 8001876:	06b3      	lsls	r3, r6, #26
 8001878:	d508      	bpl.n	800188c <HAL_CAN_IRQHandler+0xce>
 800187a:	f01a 0f08 	tst.w	sl, #8
 800187e:	d005      	beq.n	800188c <HAL_CAN_IRQHandler+0xce>
 8001880:	682b      	ldr	r3, [r5, #0]
 8001882:	2208      	movs	r2, #8
 8001884:	611a      	str	r2, [r3, #16]
 8001886:	4628      	mov	r0, r5
 8001888:	f7ff ff95 	bl	80017b6 <HAL_CAN_RxFifo1FullCallback>
 800188c:	06f7      	lsls	r7, r6, #27
 800188e:	d506      	bpl.n	800189e <HAL_CAN_IRQHandler+0xe0>
 8001890:	682b      	ldr	r3, [r5, #0]
 8001892:	691b      	ldr	r3, [r3, #16]
 8001894:	0798      	lsls	r0, r3, #30
 8001896:	d002      	beq.n	800189e <HAL_CAN_IRQHandler+0xe0>
 8001898:	4628      	mov	r0, r5
 800189a:	f7ff ff8b 	bl	80017b4 <HAL_CAN_RxFifo1MsgPendingCallback>
 800189e:	03b1      	lsls	r1, r6, #14
 80018a0:	d508      	bpl.n	80018b4 <HAL_CAN_IRQHandler+0xf6>
 80018a2:	f019 0f10 	tst.w	r9, #16
 80018a6:	d005      	beq.n	80018b4 <HAL_CAN_IRQHandler+0xf6>
 80018a8:	682b      	ldr	r3, [r5, #0]
 80018aa:	2210      	movs	r2, #16
 80018ac:	605a      	str	r2, [r3, #4]
 80018ae:	4628      	mov	r0, r5
 80018b0:	f7ff ff82 	bl	80017b8 <HAL_CAN_SleepCallback>
 80018b4:	03f2      	lsls	r2, r6, #15
 80018b6:	d508      	bpl.n	80018ca <HAL_CAN_IRQHandler+0x10c>
 80018b8:	f019 0f08 	tst.w	r9, #8
 80018bc:	d005      	beq.n	80018ca <HAL_CAN_IRQHandler+0x10c>
 80018be:	682b      	ldr	r3, [r5, #0]
 80018c0:	2208      	movs	r2, #8
 80018c2:	605a      	str	r2, [r3, #4]
 80018c4:	4628      	mov	r0, r5
 80018c6:	f7ff ff78 	bl	80017ba <HAL_CAN_WakeUpFromRxMsgCallback>
 80018ca:	0433      	lsls	r3, r6, #16
 80018cc:	d52a      	bpl.n	8001924 <HAL_CAN_IRQHandler+0x166>
 80018ce:	f019 0f04 	tst.w	r9, #4
 80018d2:	682a      	ldr	r2, [r5, #0]
 80018d4:	d024      	beq.n	8001920 <HAL_CAN_IRQHandler+0x162>
 80018d6:	05f7      	lsls	r7, r6, #23
 80018d8:	d504      	bpl.n	80018e4 <HAL_CAN_IRQHandler+0x126>
 80018da:	f018 0f01 	tst.w	r8, #1
 80018de:	bf18      	it	ne
 80018e0:	f044 0401 	orrne.w	r4, r4, #1
 80018e4:	05b0      	lsls	r0, r6, #22
 80018e6:	d504      	bpl.n	80018f2 <HAL_CAN_IRQHandler+0x134>
 80018e8:	f018 0f02 	tst.w	r8, #2
 80018ec:	bf18      	it	ne
 80018ee:	f044 0402 	orrne.w	r4, r4, #2
 80018f2:	0571      	lsls	r1, r6, #21
 80018f4:	d504      	bpl.n	8001900 <HAL_CAN_IRQHandler+0x142>
 80018f6:	f018 0f04 	tst.w	r8, #4
 80018fa:	bf18      	it	ne
 80018fc:	f044 0404 	orrne.w	r4, r4, #4
 8001900:	0533      	lsls	r3, r6, #20
 8001902:	d50d      	bpl.n	8001920 <HAL_CAN_IRQHandler+0x162>
 8001904:	f018 0370 	ands.w	r3, r8, #112	; 0x70
 8001908:	d00a      	beq.n	8001920 <HAL_CAN_IRQHandler+0x162>
 800190a:	2b30      	cmp	r3, #48	; 0x30
 800190c:	d04c      	beq.n	80019a8 <HAL_CAN_IRQHandler+0x1ea>
 800190e:	d83c      	bhi.n	800198a <HAL_CAN_IRQHandler+0x1cc>
 8001910:	2b10      	cmp	r3, #16
 8001912:	d043      	beq.n	800199c <HAL_CAN_IRQHandler+0x1de>
 8001914:	2b20      	cmp	r3, #32
 8001916:	d044      	beq.n	80019a2 <HAL_CAN_IRQHandler+0x1e4>
 8001918:	6993      	ldr	r3, [r2, #24]
 800191a:	f023 0370 	bic.w	r3, r3, #112	; 0x70
 800191e:	6193      	str	r3, [r2, #24]
 8001920:	2304      	movs	r3, #4
 8001922:	6053      	str	r3, [r2, #4]
 8001924:	b12c      	cbz	r4, 8001932 <HAL_CAN_IRQHandler+0x174>
 8001926:	6a6b      	ldr	r3, [r5, #36]	; 0x24
 8001928:	431c      	orrs	r4, r3
 800192a:	626c      	str	r4, [r5, #36]	; 0x24
 800192c:	4628      	mov	r0, r5
 800192e:	f7ff ff45 	bl	80017bc <HAL_CAN_ErrorCallback>
 8001932:	e8bd 8ff8 	ldmia.w	sp!, {r3, r4, r5, r6, r7, r8, r9, sl, fp, pc}
 8001936:	077a      	lsls	r2, r7, #29
 8001938:	d405      	bmi.n	8001946 <HAL_CAN_IRQHandler+0x188>
 800193a:	f017 0408 	ands.w	r4, r7, #8
 800193e:	d105      	bne.n	800194c <HAL_CAN_IRQHandler+0x18e>
 8001940:	f7ff ff34 	bl	80017ac <HAL_CAN_TxMailbox0AbortCallback>
 8001944:	e757      	b.n	80017f6 <HAL_CAN_IRQHandler+0x38>
 8001946:	f44f 6400 	mov.w	r4, #2048	; 0x800
 800194a:	e754      	b.n	80017f6 <HAL_CAN_IRQHandler+0x38>
 800194c:	f44f 5480 	mov.w	r4, #4096	; 0x1000
 8001950:	e751      	b.n	80017f6 <HAL_CAN_IRQHandler+0x38>
 8001952:	0579      	lsls	r1, r7, #21
 8001954:	d502      	bpl.n	800195c <HAL_CAN_IRQHandler+0x19e>
 8001956:	f444 5400 	orr.w	r4, r4, #8192	; 0x2000
 800195a:	e758      	b.n	800180e <HAL_CAN_IRQHandler+0x50>
 800195c:	053a      	lsls	r2, r7, #20
 800195e:	d502      	bpl.n	8001966 <HAL_CAN_IRQHandler+0x1a8>
 8001960:	f444 4480 	orr.w	r4, r4, #16384	; 0x4000
 8001964:	e753      	b.n	800180e <HAL_CAN_IRQHandler+0x50>
 8001966:	4628      	mov	r0, r5
 8001968:	f7ff ff21 	bl	80017ae <HAL_CAN_TxMailbox1AbortCallback>
 800196c:	e74f      	b.n	800180e <HAL_CAN_IRQHandler+0x50>
 800196e:	0379      	lsls	r1, r7, #13
 8001970:	d502      	bpl.n	8001978 <HAL_CAN_IRQHandler+0x1ba>
 8001972:	f444 4400 	orr.w	r4, r4, #32768	; 0x8000
 8001976:	e756      	b.n	8001826 <HAL_CAN_IRQHandler+0x68>
 8001978:	033a      	lsls	r2, r7, #12
 800197a:	d502      	bpl.n	8001982 <HAL_CAN_IRQHandler+0x1c4>
 800197c:	f444 3480 	orr.w	r4, r4, #65536	; 0x10000
 8001980:	e751      	b.n	8001826 <HAL_CAN_IRQHandler+0x68>
 8001982:	4628      	mov	r0, r5
 8001984:	f7ff ff14 	bl	80017b0 <HAL_CAN_TxMailbox2AbortCallback>
 8001988:	e74d      	b.n	8001826 <HAL_CAN_IRQHandler+0x68>
 800198a:	2b50      	cmp	r3, #80	; 0x50
 800198c:	d00f      	beq.n	80019ae <HAL_CAN_IRQHandler+0x1f0>
 800198e:	2b60      	cmp	r3, #96	; 0x60
 8001990:	d010      	beq.n	80019b4 <HAL_CAN_IRQHandler+0x1f6>
 8001992:	2b40      	cmp	r3, #64	; 0x40
 8001994:	d1c0      	bne.n	8001918 <HAL_CAN_IRQHandler+0x15a>
 8001996:	f044 0440 	orr.w	r4, r4, #64	; 0x40
 800199a:	e7bd      	b.n	8001918 <HAL_CAN_IRQHandler+0x15a>
 800199c:	f044 0408 	orr.w	r4, r4, #8
 80019a0:	e7ba      	b.n	8001918 <HAL_CAN_IRQHandler+0x15a>
 80019a2:	f044 0410 	orr.w	r4, r4, #16
 80019a6:	e7b7      	b.n	8001918 <HAL_CAN_IRQHandler+0x15a>
 80019a8:	f044 0420 	orr.w	r4, r4, #32
 80019ac:	e7b4      	b.n	8001918 <HAL_CAN_IRQHandler+0x15a>
 80019ae:	f044 0480 	orr.w	r4, r4, #128	; 0x80
 80019b2:	e7b1      	b.n	8001918 <HAL_CAN_IRQHandler+0x15a>
 80019b4:	f444 7480 	orr.w	r4, r4, #256	; 0x100
 80019b8:	e7ae      	b.n	8001918 <HAL_CAN_IRQHandler+0x15a>
	...

080019bc <HAL_NVIC_SetPriorityGrouping>:
 80019bc:	4a07      	ldr	r2, [pc, #28]	; (80019dc <HAL_NVIC_SetPriorityGrouping+0x20>)
 80019be:	68d3      	ldr	r3, [r2, #12]
 80019c0:	f423 63e0 	bic.w	r3, r3, #1792	; 0x700
 80019c4:	041b      	lsls	r3, r3, #16
 80019c6:	0c1b      	lsrs	r3, r3, #16
 80019c8:	f043 63bf 	orr.w	r3, r3, #100139008	; 0x5f80000
 80019cc:	0200      	lsls	r0, r0, #8
 80019ce:	f443 3300 	orr.w	r3, r3, #131072	; 0x20000
 80019d2:	f400 60e0 	and.w	r0, r0, #1792	; 0x700
 80019d6:	4303      	orrs	r3, r0
 80019d8:	60d3      	str	r3, [r2, #12]
 80019da:	4770      	bx	lr
 80019dc:	e000ed00 	.word	0xe000ed00

080019e0 <HAL_NVIC_SetPriority>:
 80019e0:	4b17      	ldr	r3, [pc, #92]	; (8001a40 <HAL_NVIC_SetPriority+0x60>)
 80019e2:	b570      	push	{r4, r5, r6, lr}
 80019e4:	68dc      	ldr	r4, [r3, #12]
 80019e6:	f3c4 2402 	ubfx	r4, r4, #8, #3
 80019ea:	f1c4 0507 	rsb	r5, r4, #7
 80019ee:	2d04      	cmp	r5, #4
 80019f0:	f104 0304 	add.w	r3, r4, #4
 80019f4:	bf28      	it	cs
 80019f6:	2504      	movcs	r5, #4
 80019f8:	f04f 36ff 	mov.w	r6, #4294967295
 80019fc:	2b06      	cmp	r3, #6
 80019fe:	fa06 f305 	lsl.w	r3, r6, r5
 8001a02:	bf8c      	ite	hi
 8001a04:	3c03      	subhi	r4, #3
 8001a06:	2400      	movls	r4, #0
 8001a08:	ea21 0303 	bic.w	r3, r1, r3
 8001a0c:	40a3      	lsls	r3, r4
 8001a0e:	fa06 f404 	lsl.w	r4, r6, r4
 8001a12:	ea22 0404 	bic.w	r4, r2, r4
 8001a16:	2800      	cmp	r0, #0
 8001a18:	ea43 0304 	orr.w	r3, r3, r4
 8001a1c:	bfa8      	it	ge
 8001a1e:	f100 4060 	addge.w	r0, r0, #3758096384	; 0xe0000000
 8001a22:	ea4f 1303 	mov.w	r3, r3, lsl #4
 8001a26:	bfbc      	itt	lt
 8001a28:	f000 000f 	andlt.w	r0, r0, #15
 8001a2c:	4a05      	ldrlt	r2, [pc, #20]	; (8001a44 <HAL_NVIC_SetPriority+0x64>)
 8001a2e:	b2db      	uxtb	r3, r3
 8001a30:	bfaa      	itet	ge
 8001a32:	f500 4061 	addge.w	r0, r0, #57600	; 0xe100
 8001a36:	5413      	strblt	r3, [r2, r0]
 8001a38:	f880 3300 	strbge.w	r3, [r0, #768]	; 0x300
 8001a3c:	bd70      	pop	{r4, r5, r6, pc}
 8001a3e:	bf00      	nop
 8001a40:	e000ed00 	.word	0xe000ed00
 8001a44:	e000ed14 	.word	0xe000ed14

08001a48 <HAL_NVIC_EnableIRQ>:
 8001a48:	2800      	cmp	r0, #0
 8001a4a:	db08      	blt.n	8001a5e <HAL_NVIC_EnableIRQ+0x16>
 8001a4c:	0942      	lsrs	r2, r0, #5
 8001a4e:	2301      	movs	r3, #1
 8001a50:	f000 001f 	and.w	r0, r0, #31
 8001a54:	fa03 f000 	lsl.w	r0, r3, r0
 8001a58:	4b01      	ldr	r3, [pc, #4]	; (8001a60 <HAL_NVIC_EnableIRQ+0x18>)
 8001a5a:	f843 0022 	str.w	r0, [r3, r2, lsl #2]
 8001a5e:	4770      	bx	lr
 8001a60:	e000e100 	.word	0xe000e100

08001a64 <HAL_GPIO_Init>:
 8001a64:	e92d 4ff0 	stmdb	sp!, {r4, r5, r6, r7, r8, r9, sl, fp, lr}
 8001a68:	b085      	sub	sp, #20
 8001a6a:	680b      	ldr	r3, [r1, #0]
 8001a6c:	f8df 81c4 	ldr.w	r8, [pc, #452]	; 8001c34 <HAL_GPIO_Init+0x1d0>
 8001a70:	4a6e      	ldr	r2, [pc, #440]	; (8001c2c <HAL_GPIO_Init+0x1c8>)
 8001a72:	f8df 91c4 	ldr.w	r9, [pc, #452]	; 8001c38 <HAL_GPIO_Init+0x1d4>
 8001a76:	9301      	str	r3, [sp, #4]
 8001a78:	2300      	movs	r3, #0
 8001a7a:	2401      	movs	r4, #1
 8001a7c:	9d01      	ldr	r5, [sp, #4]
 8001a7e:	409c      	lsls	r4, r3
 8001a80:	4025      	ands	r5, r4
 8001a82:	42ac      	cmp	r4, r5
 8001a84:	f040 80b8 	bne.w	8001bf8 <HAL_GPIO_Init+0x194>
 8001a88:	684c      	ldr	r4, [r1, #4]
 8001a8a:	f024 0c10 	bic.w	ip, r4, #16
 8001a8e:	ea4f 0e43 	mov.w	lr, r3, lsl #1
 8001a92:	2603      	movs	r6, #3
 8001a94:	f10c 37ff 	add.w	r7, ip, #4294967295
 8001a98:	fa06 f60e 	lsl.w	r6, r6, lr
 8001a9c:	2f01      	cmp	r7, #1
 8001a9e:	ea6f 0606 	mvn.w	r6, r6
 8001aa2:	d811      	bhi.n	8001ac8 <HAL_GPIO_Init+0x64>
 8001aa4:	6887      	ldr	r7, [r0, #8]
 8001aa6:	ea07 0a06 	and.w	sl, r7, r6
 8001aaa:	68cf      	ldr	r7, [r1, #12]
 8001aac:	fa07 f70e 	lsl.w	r7, r7, lr
 8001ab0:	ea47 070a 	orr.w	r7, r7, sl
 8001ab4:	6087      	str	r7, [r0, #8]
 8001ab6:	6847      	ldr	r7, [r0, #4]
 8001ab8:	ea27 0a05 	bic.w	sl, r7, r5
 8001abc:	f3c4 1700 	ubfx	r7, r4, #4, #1
 8001ac0:	409f      	lsls	r7, r3
 8001ac2:	ea47 070a 	orr.w	r7, r7, sl
 8001ac6:	6047      	str	r7, [r0, #4]
 8001ac8:	68c7      	ldr	r7, [r0, #12]
 8001aca:	ea07 0a06 	and.w	sl, r7, r6
 8001ace:	688f      	ldr	r7, [r1, #8]
 8001ad0:	fa07 f70e 	lsl.w	r7, r7, lr
 8001ad4:	ea47 070a 	orr.w	r7, r7, sl
 8001ad8:	f1bc 0f02 	cmp.w	ip, #2
 8001adc:	60c7      	str	r7, [r0, #12]
 8001ade:	d116      	bne.n	8001b0e <HAL_GPIO_Init+0xaa>
 8001ae0:	ea4f 0ad3 	mov.w	sl, r3, lsr #3
 8001ae4:	eb00 0a8a 	add.w	sl, r0, sl, lsl #2
 8001ae8:	f003 0b07 	and.w	fp, r3, #7
 8001aec:	f8da 7020 	ldr.w	r7, [sl, #32]
 8001af0:	ea4f 0b8b 	mov.w	fp, fp, lsl #2
 8001af4:	f04f 0c0f 	mov.w	ip, #15
 8001af8:	fa0c fc0b 	lsl.w	ip, ip, fp
 8001afc:	ea27 0c0c 	bic.w	ip, r7, ip
 8001b00:	690f      	ldr	r7, [r1, #16]
 8001b02:	fa07 f70b 	lsl.w	r7, r7, fp
 8001b06:	ea47 070c 	orr.w	r7, r7, ip
 8001b0a:	f8ca 7020 	str.w	r7, [sl, #32]
 8001b0e:	6807      	ldr	r7, [r0, #0]
 8001b10:	403e      	ands	r6, r7
 8001b12:	f004 0703 	and.w	r7, r4, #3
 8001b16:	fa07 fe0e 	lsl.w	lr, r7, lr
 8001b1a:	ea4e 0606 	orr.w	r6, lr, r6
 8001b1e:	6006      	str	r6, [r0, #0]
 8001b20:	00e6      	lsls	r6, r4, #3
 8001b22:	d569      	bpl.n	8001bf8 <HAL_GPIO_Init+0x194>
 8001b24:	f04f 0b00 	mov.w	fp, #0
 8001b28:	f8cd b00c 	str.w	fp, [sp, #12]
 8001b2c:	f8d8 7044 	ldr.w	r7, [r8, #68]	; 0x44
 8001b30:	4e3f      	ldr	r6, [pc, #252]	; (8001c30 <HAL_GPIO_Init+0x1cc>)
 8001b32:	f447 4780 	orr.w	r7, r7, #16384	; 0x4000
 8001b36:	f8c8 7044 	str.w	r7, [r8, #68]	; 0x44
 8001b3a:	f8d8 7044 	ldr.w	r7, [r8, #68]	; 0x44
 8001b3e:	f407 4780 	and.w	r7, r7, #16384	; 0x4000
 8001b42:	9703      	str	r7, [sp, #12]
 8001b44:	9f03      	ldr	r7, [sp, #12]
 8001b46:	f023 0703 	bic.w	r7, r3, #3
 8001b4a:	f107 4780 	add.w	r7, r7, #1073741824	; 0x40000000
 8001b4e:	f507 379c 	add.w	r7, r7, #79872	; 0x13800
 8001b52:	f003 0e03 	and.w	lr, r3, #3
 8001b56:	f8d7 a008 	ldr.w	sl, [r7, #8]
 8001b5a:	ea4f 0e8e 	mov.w	lr, lr, lsl #2
 8001b5e:	f04f 0c0f 	mov.w	ip, #15
 8001b62:	fa0c fc0e 	lsl.w	ip, ip, lr
 8001b66:	42b0      	cmp	r0, r6
 8001b68:	ea2a 0c0c 	bic.w	ip, sl, ip
 8001b6c:	d04b      	beq.n	8001c06 <HAL_GPIO_Init+0x1a2>
 8001b6e:	f506 6680 	add.w	r6, r6, #1024	; 0x400
 8001b72:	42b0      	cmp	r0, r6
 8001b74:	d049      	beq.n	8001c0a <HAL_GPIO_Init+0x1a6>
 8001b76:	f506 6680 	add.w	r6, r6, #1024	; 0x400
 8001b7a:	42b0      	cmp	r0, r6
 8001b7c:	d047      	beq.n	8001c0e <HAL_GPIO_Init+0x1aa>
 8001b7e:	f506 6680 	add.w	r6, r6, #1024	; 0x400
 8001b82:	42b0      	cmp	r0, r6
 8001b84:	d045      	beq.n	8001c12 <HAL_GPIO_Init+0x1ae>
 8001b86:	f506 6680 	add.w	r6, r6, #1024	; 0x400
 8001b8a:	42b0      	cmp	r0, r6
 8001b8c:	d043      	beq.n	8001c16 <HAL_GPIO_Init+0x1b2>
 8001b8e:	4548      	cmp	r0, r9
 8001b90:	d043      	beq.n	8001c1a <HAL_GPIO_Init+0x1b6>
 8001b92:	f506 6600 	add.w	r6, r6, #2048	; 0x800
 8001b96:	42b0      	cmp	r0, r6
 8001b98:	d041      	beq.n	8001c1e <HAL_GPIO_Init+0x1ba>
 8001b9a:	f506 6680 	add.w	r6, r6, #1024	; 0x400
 8001b9e:	42b0      	cmp	r0, r6
 8001ba0:	d03f      	beq.n	8001c22 <HAL_GPIO_Init+0x1be>
 8001ba2:	f506 6680 	add.w	r6, r6, #1024	; 0x400
 8001ba6:	42b0      	cmp	r0, r6
 8001ba8:	d03d      	beq.n	8001c26 <HAL_GPIO_Init+0x1c2>
 8001baa:	f506 6680 	add.w	r6, r6, #1024	; 0x400
 8001bae:	42b0      	cmp	r0, r6
 8001bb0:	bf14      	ite	ne
 8001bb2:	260a      	movne	r6, #10
 8001bb4:	2609      	moveq	r6, #9
 8001bb6:	fa06 f60e 	lsl.w	r6, r6, lr
 8001bba:	ea46 060c 	orr.w	r6, r6, ip
 8001bbe:	60be      	str	r6, [r7, #8]
 8001bc0:	6816      	ldr	r6, [r2, #0]
 8001bc2:	43ef      	mvns	r7, r5
 8001bc4:	f414 3f80 	tst.w	r4, #65536	; 0x10000
 8001bc8:	bf0c      	ite	eq
 8001bca:	403e      	andeq	r6, r7
 8001bcc:	432e      	orrne	r6, r5
 8001bce:	6016      	str	r6, [r2, #0]
 8001bd0:	6856      	ldr	r6, [r2, #4]
 8001bd2:	f414 3f00 	tst.w	r4, #131072	; 0x20000
 8001bd6:	bf0c      	ite	eq
 8001bd8:	403e      	andeq	r6, r7
 8001bda:	432e      	orrne	r6, r5
 8001bdc:	6056      	str	r6, [r2, #4]
 8001bde:	6896      	ldr	r6, [r2, #8]
 8001be0:	f414 1f80 	tst.w	r4, #1048576	; 0x100000
 8001be4:	bf0c      	ite	eq
 8001be6:	403e      	andeq	r6, r7
 8001be8:	432e      	orrne	r6, r5
 8001bea:	6096      	str	r6, [r2, #8]
 8001bec:	68d6      	ldr	r6, [r2, #12]
 8001bee:	02a4      	lsls	r4, r4, #10
 8001bf0:	bf54      	ite	pl
 8001bf2:	403e      	andpl	r6, r7
 8001bf4:	432e      	orrmi	r6, r5
 8001bf6:	60d6      	str	r6, [r2, #12]
 8001bf8:	3301      	adds	r3, #1
 8001bfa:	2b10      	cmp	r3, #16
 8001bfc:	f47f af3d 	bne.w	8001a7a <HAL_GPIO_Init+0x16>
 8001c00:	b005      	add	sp, #20
 8001c02:	e8bd 8ff0 	ldmia.w	sp!, {r4, r5, r6, r7, r8, r9, sl, fp, pc}
 8001c06:	465e      	mov	r6, fp
 8001c08:	e7d5      	b.n	8001bb6 <HAL_GPIO_Init+0x152>
 8001c0a:	2601      	movs	r6, #1
 8001c0c:	e7d3      	b.n	8001bb6 <HAL_GPIO_Init+0x152>
 8001c0e:	2602      	movs	r6, #2
 8001c10:	e7d1      	b.n	8001bb6 <HAL_GPIO_Init+0x152>
 8001c12:	2603      	movs	r6, #3
 8001c14:	e7cf      	b.n	8001bb6 <HAL_GPIO_Init+0x152>
 8001c16:	2604      	movs	r6, #4
 8001c18:	e7cd      	b.n	8001bb6 <HAL_GPIO_Init+0x152>
 8001c1a:	2605      	movs	r6, #5
 8001c1c:	e7cb      	b.n	8001bb6 <HAL_GPIO_Init+0x152>
 8001c1e:	2606      	movs	r6, #6
 8001c20:	e7c9      	b.n	8001bb6 <HAL_GPIO_Init+0x152>
 8001c22:	2607      	movs	r6, #7
 8001c24:	e7c7      	b.n	8001bb6 <HAL_GPIO_Init+0x152>
 8001c26:	2608      	movs	r6, #8
 8001c28:	e7c5      	b.n	8001bb6 <HAL_GPIO_Init+0x152>
 8001c2a:	bf00      	nop
 8001c2c:	40013c00 	.word	0x40013c00
 8001c30:	40020000 	.word	0x40020000
 8001c34:	40023800 	.word	0x40023800
 8001c38:	40021400 	.word	0x40021400

08001c3c <HAL_GPIO_WritePin>:
 8001c3c:	b10a      	cbz	r2, 8001c42 <HAL_GPIO_WritePin+0x6>
 8001c3e:	6181      	str	r1, [r0, #24]
 8001c40:	4770      	bx	lr
 8001c42:	0409      	lsls	r1, r1, #16
 8001c44:	e7fb      	b.n	8001c3e <HAL_GPIO_WritePin+0x2>

08001c46 <HAL_GPIO_TogglePin>:
 8001c46:	6943      	ldr	r3, [r0, #20]
 8001c48:	ea31 0303 	bics.w	r3, r1, r3
 8001c4c:	bf08      	it	eq
 8001c4e:	0409      	lsleq	r1, r1, #16
 8001c50:	6181      	str	r1, [r0, #24]
 8001c52:	4770      	bx	lr

08001c54 <HAL_GPIO_EXTI_IRQHandler>:
 8001c54:	b508      	push	{r3, lr}
 8001c56:	4b04      	ldr	r3, [pc, #16]	; (8001c68 <HAL_GPIO_EXTI_IRQHandler+0x14>)
 8001c58:	6959      	ldr	r1, [r3, #20]
 8001c5a:	4201      	tst	r1, r0
 8001c5c:	d002      	beq.n	8001c64 <HAL_GPIO_EXTI_IRQHandler+0x10>
 8001c5e:	6158      	str	r0, [r3, #20]
 8001c60:	f7fe fef4 	bl	8000a4c <HAL_GPIO_EXTI_Callback>
 8001c64:	bd08      	pop	{r3, pc}
 8001c66:	bf00      	nop
 8001c68:	40013c00 	.word	0x40013c00

08001c6c <HAL_RCC_OscConfig>:
 8001c6c:	e92d 41f3 	stmdb	sp!, {r0, r1, r4, r5, r6, r7, r8, lr}
 8001c70:	4604      	mov	r4, r0
 8001c72:	b908      	cbnz	r0, 8001c78 <HAL_RCC_OscConfig+0xc>
 8001c74:	2001      	movs	r0, #1
 8001c76:	e03f      	b.n	8001cf8 <HAL_RCC_OscConfig+0x8c>
 8001c78:	6803      	ldr	r3, [r0, #0]
 8001c7a:	07dd      	lsls	r5, r3, #31
 8001c7c:	d410      	bmi.n	8001ca0 <HAL_RCC_OscConfig+0x34>
 8001c7e:	6823      	ldr	r3, [r4, #0]
 8001c80:	0798      	lsls	r0, r3, #30
 8001c82:	d45a      	bmi.n	8001d3a <HAL_RCC_OscConfig+0xce>
 8001c84:	6823      	ldr	r3, [r4, #0]
 8001c86:	071a      	lsls	r2, r3, #28
 8001c88:	f100 809c 	bmi.w	8001dc4 <HAL_RCC_OscConfig+0x158>
 8001c8c:	6823      	ldr	r3, [r4, #0]
 8001c8e:	075b      	lsls	r3, r3, #29
 8001c90:	f100 80ba 	bmi.w	8001e08 <HAL_RCC_OscConfig+0x19c>
 8001c94:	69a0      	ldr	r0, [r4, #24]
 8001c96:	2800      	cmp	r0, #0
 8001c98:	f040 811b 	bne.w	8001ed2 <HAL_RCC_OscConfig+0x266>
 8001c9c:	2000      	movs	r0, #0
 8001c9e:	e02b      	b.n	8001cf8 <HAL_RCC_OscConfig+0x8c>
 8001ca0:	4ba7      	ldr	r3, [pc, #668]	; (8001f40 <HAL_RCC_OscConfig+0x2d4>)
 8001ca2:	689a      	ldr	r2, [r3, #8]
 8001ca4:	f002 020c 	and.w	r2, r2, #12
 8001ca8:	2a04      	cmp	r2, #4
 8001caa:	d007      	beq.n	8001cbc <HAL_RCC_OscConfig+0x50>
 8001cac:	689a      	ldr	r2, [r3, #8]
 8001cae:	f002 020c 	and.w	r2, r2, #12
 8001cb2:	2a08      	cmp	r2, #8
 8001cb4:	d10a      	bne.n	8001ccc <HAL_RCC_OscConfig+0x60>
 8001cb6:	685b      	ldr	r3, [r3, #4]
 8001cb8:	0259      	lsls	r1, r3, #9
 8001cba:	d507      	bpl.n	8001ccc <HAL_RCC_OscConfig+0x60>
 8001cbc:	4ba0      	ldr	r3, [pc, #640]	; (8001f40 <HAL_RCC_OscConfig+0x2d4>)
 8001cbe:	681b      	ldr	r3, [r3, #0]
 8001cc0:	039a      	lsls	r2, r3, #14
 8001cc2:	d5dc      	bpl.n	8001c7e <HAL_RCC_OscConfig+0x12>
 8001cc4:	6863      	ldr	r3, [r4, #4]
 8001cc6:	2b00      	cmp	r3, #0
 8001cc8:	d1d9      	bne.n	8001c7e <HAL_RCC_OscConfig+0x12>
 8001cca:	e7d3      	b.n	8001c74 <HAL_RCC_OscConfig+0x8>
 8001ccc:	6863      	ldr	r3, [r4, #4]
 8001cce:	4d9c      	ldr	r5, [pc, #624]	; (8001f40 <HAL_RCC_OscConfig+0x2d4>)
 8001cd0:	f5b3 3f80 	cmp.w	r3, #65536	; 0x10000
 8001cd4:	d113      	bne.n	8001cfe <HAL_RCC_OscConfig+0x92>
 8001cd6:	682b      	ldr	r3, [r5, #0]
 8001cd8:	f443 3380 	orr.w	r3, r3, #65536	; 0x10000
 8001cdc:	602b      	str	r3, [r5, #0]
 8001cde:	f7ff fb5d 	bl	800139c <HAL_GetTick>
 8001ce2:	4d97      	ldr	r5, [pc, #604]	; (8001f40 <HAL_RCC_OscConfig+0x2d4>)
 8001ce4:	4606      	mov	r6, r0
 8001ce6:	682b      	ldr	r3, [r5, #0]
 8001ce8:	039b      	lsls	r3, r3, #14
 8001cea:	d4c8      	bmi.n	8001c7e <HAL_RCC_OscConfig+0x12>
 8001cec:	f7ff fb56 	bl	800139c <HAL_GetTick>
 8001cf0:	1b80      	subs	r0, r0, r6
 8001cf2:	2864      	cmp	r0, #100	; 0x64
 8001cf4:	d9f7      	bls.n	8001ce6 <HAL_RCC_OscConfig+0x7a>
 8001cf6:	2003      	movs	r0, #3
 8001cf8:	b002      	add	sp, #8
 8001cfa:	e8bd 81f0 	ldmia.w	sp!, {r4, r5, r6, r7, r8, pc}
 8001cfe:	f5b3 2fa0 	cmp.w	r3, #327680	; 0x50000
 8001d02:	d104      	bne.n	8001d0e <HAL_RCC_OscConfig+0xa2>
 8001d04:	682b      	ldr	r3, [r5, #0]
 8001d06:	f443 2380 	orr.w	r3, r3, #262144	; 0x40000
 8001d0a:	602b      	str	r3, [r5, #0]
 8001d0c:	e7e3      	b.n	8001cd6 <HAL_RCC_OscConfig+0x6a>
 8001d0e:	682a      	ldr	r2, [r5, #0]
 8001d10:	f422 3280 	bic.w	r2, r2, #65536	; 0x10000
 8001d14:	602a      	str	r2, [r5, #0]
 8001d16:	682a      	ldr	r2, [r5, #0]
 8001d18:	f422 2280 	bic.w	r2, r2, #262144	; 0x40000
 8001d1c:	602a      	str	r2, [r5, #0]
 8001d1e:	2b00      	cmp	r3, #0
 8001d20:	d1dd      	bne.n	8001cde <HAL_RCC_OscConfig+0x72>
 8001d22:	f7ff fb3b 	bl	800139c <HAL_GetTick>
 8001d26:	4606      	mov	r6, r0
 8001d28:	682b      	ldr	r3, [r5, #0]
 8001d2a:	039f      	lsls	r7, r3, #14
 8001d2c:	d5a7      	bpl.n	8001c7e <HAL_RCC_OscConfig+0x12>
 8001d2e:	f7ff fb35 	bl	800139c <HAL_GetTick>
 8001d32:	1b80      	subs	r0, r0, r6
 8001d34:	2864      	cmp	r0, #100	; 0x64
 8001d36:	d9f7      	bls.n	8001d28 <HAL_RCC_OscConfig+0xbc>
 8001d38:	e7dd      	b.n	8001cf6 <HAL_RCC_OscConfig+0x8a>
 8001d3a:	4b81      	ldr	r3, [pc, #516]	; (8001f40 <HAL_RCC_OscConfig+0x2d4>)
 8001d3c:	689a      	ldr	r2, [r3, #8]
 8001d3e:	f012 0f0c 	tst.w	r2, #12
 8001d42:	d007      	beq.n	8001d54 <HAL_RCC_OscConfig+0xe8>
 8001d44:	689a      	ldr	r2, [r3, #8]
 8001d46:	f002 020c 	and.w	r2, r2, #12
 8001d4a:	2a08      	cmp	r2, #8
 8001d4c:	d111      	bne.n	8001d72 <HAL_RCC_OscConfig+0x106>
 8001d4e:	685b      	ldr	r3, [r3, #4]
 8001d50:	025e      	lsls	r6, r3, #9
 8001d52:	d40e      	bmi.n	8001d72 <HAL_RCC_OscConfig+0x106>
 8001d54:	4b7a      	ldr	r3, [pc, #488]	; (8001f40 <HAL_RCC_OscConfig+0x2d4>)
 8001d56:	681a      	ldr	r2, [r3, #0]
 8001d58:	0795      	lsls	r5, r2, #30
 8001d5a:	d502      	bpl.n	8001d62 <HAL_RCC_OscConfig+0xf6>
 8001d5c:	68e2      	ldr	r2, [r4, #12]
 8001d5e:	2a01      	cmp	r2, #1
 8001d60:	d188      	bne.n	8001c74 <HAL_RCC_OscConfig+0x8>
 8001d62:	681a      	ldr	r2, [r3, #0]
 8001d64:	6921      	ldr	r1, [r4, #16]
 8001d66:	f022 02f8 	bic.w	r2, r2, #248	; 0xf8
 8001d6a:	ea42 02c1 	orr.w	r2, r2, r1, lsl #3
 8001d6e:	601a      	str	r2, [r3, #0]
 8001d70:	e788      	b.n	8001c84 <HAL_RCC_OscConfig+0x18>
 8001d72:	68e2      	ldr	r2, [r4, #12]
 8001d74:	4b73      	ldr	r3, [pc, #460]	; (8001f44 <HAL_RCC_OscConfig+0x2d8>)
 8001d76:	b1b2      	cbz	r2, 8001da6 <HAL_RCC_OscConfig+0x13a>
 8001d78:	2201      	movs	r2, #1
 8001d7a:	601a      	str	r2, [r3, #0]
 8001d7c:	f7ff fb0e 	bl	800139c <HAL_GetTick>
 8001d80:	4d6f      	ldr	r5, [pc, #444]	; (8001f40 <HAL_RCC_OscConfig+0x2d4>)
 8001d82:	4606      	mov	r6, r0
 8001d84:	682b      	ldr	r3, [r5, #0]
 8001d86:	0798      	lsls	r0, r3, #30
 8001d88:	d507      	bpl.n	8001d9a <HAL_RCC_OscConfig+0x12e>
 8001d8a:	682b      	ldr	r3, [r5, #0]
 8001d8c:	6922      	ldr	r2, [r4, #16]
 8001d8e:	f023 03f8 	bic.w	r3, r3, #248	; 0xf8
 8001d92:	ea43 03c2 	orr.w	r3, r3, r2, lsl #3
 8001d96:	602b      	str	r3, [r5, #0]
 8001d98:	e774      	b.n	8001c84 <HAL_RCC_OscConfig+0x18>
 8001d9a:	f7ff faff 	bl	800139c <HAL_GetTick>
 8001d9e:	1b80      	subs	r0, r0, r6
 8001da0:	2802      	cmp	r0, #2
 8001da2:	d9ef      	bls.n	8001d84 <HAL_RCC_OscConfig+0x118>
 8001da4:	e7a7      	b.n	8001cf6 <HAL_RCC_OscConfig+0x8a>
 8001da6:	601a      	str	r2, [r3, #0]
 8001da8:	f7ff faf8 	bl	800139c <HAL_GetTick>
 8001dac:	4d64      	ldr	r5, [pc, #400]	; (8001f40 <HAL_RCC_OscConfig+0x2d4>)
 8001dae:	4606      	mov	r6, r0
 8001db0:	682b      	ldr	r3, [r5, #0]
 8001db2:	0799      	lsls	r1, r3, #30
 8001db4:	f57f af66 	bpl.w	8001c84 <HAL_RCC_OscConfig+0x18>
 8001db8:	f7ff faf0 	bl	800139c <HAL_GetTick>
 8001dbc:	1b80      	subs	r0, r0, r6
 8001dbe:	2802      	cmp	r0, #2
 8001dc0:	d9f6      	bls.n	8001db0 <HAL_RCC_OscConfig+0x144>
 8001dc2:	e798      	b.n	8001cf6 <HAL_RCC_OscConfig+0x8a>
 8001dc4:	6962      	ldr	r2, [r4, #20]
 8001dc6:	4b60      	ldr	r3, [pc, #384]	; (8001f48 <HAL_RCC_OscConfig+0x2dc>)
 8001dc8:	b17a      	cbz	r2, 8001dea <HAL_RCC_OscConfig+0x17e>
 8001dca:	2201      	movs	r2, #1
 8001dcc:	601a      	str	r2, [r3, #0]
 8001dce:	f7ff fae5 	bl	800139c <HAL_GetTick>
 8001dd2:	4d5b      	ldr	r5, [pc, #364]	; (8001f40 <HAL_RCC_OscConfig+0x2d4>)
 8001dd4:	4606      	mov	r6, r0
 8001dd6:	6f6b      	ldr	r3, [r5, #116]	; 0x74
 8001dd8:	079f      	lsls	r7, r3, #30
 8001dda:	f53f af57 	bmi.w	8001c8c <HAL_RCC_OscConfig+0x20>
 8001dde:	f7ff fadd 	bl	800139c <HAL_GetTick>
 8001de2:	1b80      	subs	r0, r0, r6
 8001de4:	2802      	cmp	r0, #2
 8001de6:	d9f6      	bls.n	8001dd6 <HAL_RCC_OscConfig+0x16a>
 8001de8:	e785      	b.n	8001cf6 <HAL_RCC_OscConfig+0x8a>
 8001dea:	601a      	str	r2, [r3, #0]
 8001dec:	f7ff fad6 	bl	800139c <HAL_GetTick>
 8001df0:	4d53      	ldr	r5, [pc, #332]	; (8001f40 <HAL_RCC_OscConfig+0x2d4>)
 8001df2:	4606      	mov	r6, r0
 8001df4:	6f6b      	ldr	r3, [r5, #116]	; 0x74
 8001df6:	0798      	lsls	r0, r3, #30
 8001df8:	f57f af48 	bpl.w	8001c8c <HAL_RCC_OscConfig+0x20>
 8001dfc:	f7ff face 	bl	800139c <HAL_GetTick>
 8001e00:	1b80      	subs	r0, r0, r6
 8001e02:	2802      	cmp	r0, #2
 8001e04:	d9f6      	bls.n	8001df4 <HAL_RCC_OscConfig+0x188>
 8001e06:	e776      	b.n	8001cf6 <HAL_RCC_OscConfig+0x8a>
 8001e08:	4b4d      	ldr	r3, [pc, #308]	; (8001f40 <HAL_RCC_OscConfig+0x2d4>)
 8001e0a:	6c1a      	ldr	r2, [r3, #64]	; 0x40
 8001e0c:	f012 5280 	ands.w	r2, r2, #268435456	; 0x10000000
 8001e10:	d128      	bne.n	8001e64 <HAL_RCC_OscConfig+0x1f8>
 8001e12:	9201      	str	r2, [sp, #4]
 8001e14:	6c1a      	ldr	r2, [r3, #64]	; 0x40
 8001e16:	f042 5280 	orr.w	r2, r2, #268435456	; 0x10000000
 8001e1a:	641a      	str	r2, [r3, #64]	; 0x40
 8001e1c:	6c1b      	ldr	r3, [r3, #64]	; 0x40
 8001e1e:	f003 5380 	and.w	r3, r3, #268435456	; 0x10000000
 8001e22:	9301      	str	r3, [sp, #4]
 8001e24:	9b01      	ldr	r3, [sp, #4]
 8001e26:	2601      	movs	r6, #1
 8001e28:	4d48      	ldr	r5, [pc, #288]	; (8001f4c <HAL_RCC_OscConfig+0x2e0>)
 8001e2a:	682b      	ldr	r3, [r5, #0]
 8001e2c:	05d9      	lsls	r1, r3, #23
 8001e2e:	d51b      	bpl.n	8001e68 <HAL_RCC_OscConfig+0x1fc>
 8001e30:	68a3      	ldr	r3, [r4, #8]
 8001e32:	4d43      	ldr	r5, [pc, #268]	; (8001f40 <HAL_RCC_OscConfig+0x2d4>)
 8001e34:	2b01      	cmp	r3, #1
 8001e36:	d127      	bne.n	8001e88 <HAL_RCC_OscConfig+0x21c>
 8001e38:	6f2b      	ldr	r3, [r5, #112]	; 0x70
 8001e3a:	f043 0301 	orr.w	r3, r3, #1
 8001e3e:	672b      	str	r3, [r5, #112]	; 0x70
 8001e40:	f7ff faac 	bl	800139c <HAL_GetTick>
 8001e44:	4d3e      	ldr	r5, [pc, #248]	; (8001f40 <HAL_RCC_OscConfig+0x2d4>)
 8001e46:	4607      	mov	r7, r0
 8001e48:	f241 3888 	movw	r8, #5000	; 0x1388
 8001e4c:	6f2b      	ldr	r3, [r5, #112]	; 0x70
 8001e4e:	079b      	lsls	r3, r3, #30
 8001e50:	d539      	bpl.n	8001ec6 <HAL_RCC_OscConfig+0x25a>
 8001e52:	2e00      	cmp	r6, #0
 8001e54:	f43f af1e 	beq.w	8001c94 <HAL_RCC_OscConfig+0x28>
 8001e58:	4a39      	ldr	r2, [pc, #228]	; (8001f40 <HAL_RCC_OscConfig+0x2d4>)
 8001e5a:	6c13      	ldr	r3, [r2, #64]	; 0x40
 8001e5c:	f023 5380 	bic.w	r3, r3, #268435456	; 0x10000000
 8001e60:	6413      	str	r3, [r2, #64]	; 0x40
 8001e62:	e717      	b.n	8001c94 <HAL_RCC_OscConfig+0x28>
 8001e64:	2600      	movs	r6, #0
 8001e66:	e7df      	b.n	8001e28 <HAL_RCC_OscConfig+0x1bc>
 8001e68:	682b      	ldr	r3, [r5, #0]
 8001e6a:	f443 7380 	orr.w	r3, r3, #256	; 0x100
 8001e6e:	602b      	str	r3, [r5, #0]
 8001e70:	f7ff fa94 	bl	800139c <HAL_GetTick>
 8001e74:	4607      	mov	r7, r0
 8001e76:	682b      	ldr	r3, [r5, #0]
 8001e78:	05da      	lsls	r2, r3, #23
 8001e7a:	d4d9      	bmi.n	8001e30 <HAL_RCC_OscConfig+0x1c4>
 8001e7c:	f7ff fa8e 	bl	800139c <HAL_GetTick>
 8001e80:	1bc0      	subs	r0, r0, r7
 8001e82:	2802      	cmp	r0, #2
 8001e84:	d9f7      	bls.n	8001e76 <HAL_RCC_OscConfig+0x20a>
 8001e86:	e736      	b.n	8001cf6 <HAL_RCC_OscConfig+0x8a>
 8001e88:	2b05      	cmp	r3, #5
 8001e8a:	d104      	bne.n	8001e96 <HAL_RCC_OscConfig+0x22a>
 8001e8c:	6f2b      	ldr	r3, [r5, #112]	; 0x70
 8001e8e:	f043 0304 	orr.w	r3, r3, #4
 8001e92:	672b      	str	r3, [r5, #112]	; 0x70
 8001e94:	e7d0      	b.n	8001e38 <HAL_RCC_OscConfig+0x1cc>
 8001e96:	6f2a      	ldr	r2, [r5, #112]	; 0x70
 8001e98:	f022 0201 	bic.w	r2, r2, #1
 8001e9c:	672a      	str	r2, [r5, #112]	; 0x70
 8001e9e:	6f2a      	ldr	r2, [r5, #112]	; 0x70
 8001ea0:	f022 0204 	bic.w	r2, r2, #4
 8001ea4:	672a      	str	r2, [r5, #112]	; 0x70
 8001ea6:	2b00      	cmp	r3, #0
 8001ea8:	d1ca      	bne.n	8001e40 <HAL_RCC_OscConfig+0x1d4>
 8001eaa:	f7ff fa77 	bl	800139c <HAL_GetTick>
 8001eae:	f241 3888 	movw	r8, #5000	; 0x1388
 8001eb2:	4607      	mov	r7, r0
 8001eb4:	6f2b      	ldr	r3, [r5, #112]	; 0x70
 8001eb6:	0798      	lsls	r0, r3, #30
 8001eb8:	d5cb      	bpl.n	8001e52 <HAL_RCC_OscConfig+0x1e6>
 8001eba:	f7ff fa6f 	bl	800139c <HAL_GetTick>
 8001ebe:	1bc0      	subs	r0, r0, r7
 8001ec0:	4540      	cmp	r0, r8
 8001ec2:	d9f7      	bls.n	8001eb4 <HAL_RCC_OscConfig+0x248>
 8001ec4:	e717      	b.n	8001cf6 <HAL_RCC_OscConfig+0x8a>
 8001ec6:	f7ff fa69 	bl	800139c <HAL_GetTick>
 8001eca:	1bc0      	subs	r0, r0, r7
 8001ecc:	4540      	cmp	r0, r8
 8001ece:	d9bd      	bls.n	8001e4c <HAL_RCC_OscConfig+0x1e0>
 8001ed0:	e711      	b.n	8001cf6 <HAL_RCC_OscConfig+0x8a>
 8001ed2:	4d1b      	ldr	r5, [pc, #108]	; (8001f40 <HAL_RCC_OscConfig+0x2d4>)
 8001ed4:	68ab      	ldr	r3, [r5, #8]
 8001ed6:	f003 030c 	and.w	r3, r3, #12
 8001eda:	2b08      	cmp	r3, #8
 8001edc:	d047      	beq.n	8001f6e <HAL_RCC_OscConfig+0x302>
 8001ede:	4e1c      	ldr	r6, [pc, #112]	; (8001f50 <HAL_RCC_OscConfig+0x2e4>)
 8001ee0:	2300      	movs	r3, #0
 8001ee2:	2802      	cmp	r0, #2
 8001ee4:	6033      	str	r3, [r6, #0]
 8001ee6:	d135      	bne.n	8001f54 <HAL_RCC_OscConfig+0x2e8>
 8001ee8:	f7ff fa58 	bl	800139c <HAL_GetTick>
 8001eec:	4607      	mov	r7, r0
 8001eee:	682b      	ldr	r3, [r5, #0]
 8001ef0:	0199      	lsls	r1, r3, #6
 8001ef2:	d41e      	bmi.n	8001f32 <HAL_RCC_OscConfig+0x2c6>
 8001ef4:	e9d4 3207 	ldrd	r3, r2, [r4, #28]
 8001ef8:	4313      	orrs	r3, r2
 8001efa:	6a62      	ldr	r2, [r4, #36]	; 0x24
 8001efc:	ea43 1382 	orr.w	r3, r3, r2, lsl #6
 8001f00:	6ae2      	ldr	r2, [r4, #44]	; 0x2c
 8001f02:	ea43 6302 	orr.w	r3, r3, r2, lsl #24
 8001f06:	6aa2      	ldr	r2, [r4, #40]	; 0x28
 8001f08:	4c0d      	ldr	r4, [pc, #52]	; (8001f40 <HAL_RCC_OscConfig+0x2d4>)
 8001f0a:	0852      	lsrs	r2, r2, #1
 8001f0c:	3a01      	subs	r2, #1
 8001f0e:	ea43 4302 	orr.w	r3, r3, r2, lsl #16
 8001f12:	606b      	str	r3, [r5, #4]
 8001f14:	2301      	movs	r3, #1
 8001f16:	6033      	str	r3, [r6, #0]
 8001f18:	f7ff fa40 	bl	800139c <HAL_GetTick>
 8001f1c:	4605      	mov	r5, r0
 8001f1e:	6823      	ldr	r3, [r4, #0]
 8001f20:	019a      	lsls	r2, r3, #6
 8001f22:	f53f aebb 	bmi.w	8001c9c <HAL_RCC_OscConfig+0x30>
 8001f26:	f7ff fa39 	bl	800139c <HAL_GetTick>
 8001f2a:	1b40      	subs	r0, r0, r5
 8001f2c:	2802      	cmp	r0, #2
 8001f2e:	d9f6      	bls.n	8001f1e <HAL_RCC_OscConfig+0x2b2>
 8001f30:	e6e1      	b.n	8001cf6 <HAL_RCC_OscConfig+0x8a>
 8001f32:	f7ff fa33 	bl	800139c <HAL_GetTick>
 8001f36:	1bc0      	subs	r0, r0, r7
 8001f38:	2802      	cmp	r0, #2
 8001f3a:	d9d8      	bls.n	8001eee <HAL_RCC_OscConfig+0x282>
 8001f3c:	e6db      	b.n	8001cf6 <HAL_RCC_OscConfig+0x8a>
 8001f3e:	bf00      	nop
 8001f40:	40023800 	.word	0x40023800
 8001f44:	42470000 	.word	0x42470000
 8001f48:	42470e80 	.word	0x42470e80
 8001f4c:	40007000 	.word	0x40007000
 8001f50:	42470060 	.word	0x42470060
 8001f54:	f7ff fa22 	bl	800139c <HAL_GetTick>
 8001f58:	4604      	mov	r4, r0
 8001f5a:	682b      	ldr	r3, [r5, #0]
 8001f5c:	019b      	lsls	r3, r3, #6
 8001f5e:	f57f ae9d 	bpl.w	8001c9c <HAL_RCC_OscConfig+0x30>
 8001f62:	f7ff fa1b 	bl	800139c <HAL_GetTick>
 8001f66:	1b00      	subs	r0, r0, r4
 8001f68:	2802      	cmp	r0, #2
 8001f6a:	d9f6      	bls.n	8001f5a <HAL_RCC_OscConfig+0x2ee>
 8001f6c:	e6c3      	b.n	8001cf6 <HAL_RCC_OscConfig+0x8a>
 8001f6e:	2801      	cmp	r0, #1
 8001f70:	f43f aec2 	beq.w	8001cf8 <HAL_RCC_OscConfig+0x8c>
 8001f74:	6868      	ldr	r0, [r5, #4]
 8001f76:	69e3      	ldr	r3, [r4, #28]
 8001f78:	f400 0280 	and.w	r2, r0, #4194304	; 0x400000
 8001f7c:	429a      	cmp	r2, r3
 8001f7e:	f47f ae79 	bne.w	8001c74 <HAL_RCC_OscConfig+0x8>
 8001f82:	6a22      	ldr	r2, [r4, #32]
 8001f84:	f000 033f 	and.w	r3, r0, #63	; 0x3f
 8001f88:	4293      	cmp	r3, r2
 8001f8a:	f47f ae73 	bne.w	8001c74 <HAL_RCC_OscConfig+0x8>
 8001f8e:	6a62      	ldr	r2, [r4, #36]	; 0x24
 8001f90:	f647 73c0 	movw	r3, #32704	; 0x7fc0
 8001f94:	4003      	ands	r3, r0
 8001f96:	4293      	cmp	r3, r2
 8001f98:	f47f ae6c 	bne.w	8001c74 <HAL_RCC_OscConfig+0x8>
 8001f9c:	6aa2      	ldr	r2, [r4, #40]	; 0x28
 8001f9e:	f400 3340 	and.w	r3, r0, #196608	; 0x30000
 8001fa2:	4293      	cmp	r3, r2
 8001fa4:	f47f ae66 	bne.w	8001c74 <HAL_RCC_OscConfig+0x8>
 8001fa8:	6ae3      	ldr	r3, [r4, #44]	; 0x2c
 8001faa:	f000 6070 	and.w	r0, r0, #251658240	; 0xf000000
 8001fae:	1ac0      	subs	r0, r0, r3
 8001fb0:	bf18      	it	ne
 8001fb2:	2001      	movne	r0, #1
 8001fb4:	e6a0      	b.n	8001cf8 <HAL_RCC_OscConfig+0x8c>
 8001fb6:	bf00      	nop

08001fb8 <HAL_RCC_GetSysClockFreq>:
 8001fb8:	4913      	ldr	r1, [pc, #76]	; (8002008 <HAL_RCC_GetSysClockFreq+0x50>)
 8001fba:	b508      	push	{r3, lr}
 8001fbc:	688b      	ldr	r3, [r1, #8]
 8001fbe:	f003 030c 	and.w	r3, r3, #12
 8001fc2:	2b04      	cmp	r3, #4
 8001fc4:	d003      	beq.n	8001fce <HAL_RCC_GetSysClockFreq+0x16>
 8001fc6:	2b08      	cmp	r3, #8
 8001fc8:	d003      	beq.n	8001fd2 <HAL_RCC_GetSysClockFreq+0x1a>
 8001fca:	4810      	ldr	r0, [pc, #64]	; (800200c <HAL_RCC_GetSysClockFreq+0x54>)
 8001fcc:	e000      	b.n	8001fd0 <HAL_RCC_GetSysClockFreq+0x18>
 8001fce:	4810      	ldr	r0, [pc, #64]	; (8002010 <HAL_RCC_GetSysClockFreq+0x58>)
 8001fd0:	bd08      	pop	{r3, pc}
 8001fd2:	684a      	ldr	r2, [r1, #4]
 8001fd4:	684b      	ldr	r3, [r1, #4]
 8001fd6:	6849      	ldr	r1, [r1, #4]
 8001fd8:	f413 0380 	ands.w	r3, r3, #4194304	; 0x400000
 8001fdc:	bf14      	ite	ne
 8001fde:	480c      	ldrne	r0, [pc, #48]	; (8002010 <HAL_RCC_GetSysClockFreq+0x58>)
 8001fe0:	480a      	ldreq	r0, [pc, #40]	; (800200c <HAL_RCC_GetSysClockFreq+0x54>)
 8001fe2:	f3c1 1188 	ubfx	r1, r1, #6, #9
 8001fe6:	bf18      	it	ne
 8001fe8:	2300      	movne	r3, #0
 8001fea:	f002 023f 	and.w	r2, r2, #63	; 0x3f
 8001fee:	fba1 0100 	umull	r0, r1, r1, r0
 8001ff2:	f7fe fb09 	bl	8000608 <__aeabi_uldivmod>
 8001ff6:	4b04      	ldr	r3, [pc, #16]	; (8002008 <HAL_RCC_GetSysClockFreq+0x50>)
 8001ff8:	685b      	ldr	r3, [r3, #4]
 8001ffa:	f3c3 4301 	ubfx	r3, r3, #16, #2
 8001ffe:	3301      	adds	r3, #1
 8002000:	005b      	lsls	r3, r3, #1
 8002002:	fbb0 f0f3 	udiv	r0, r0, r3
 8002006:	e7e3      	b.n	8001fd0 <HAL_RCC_GetSysClockFreq+0x18>
 8002008:	40023800 	.word	0x40023800
 800200c:	00f42400 	.word	0x00f42400
 8002010:	00b71b00 	.word	0x00b71b00

08002014 <HAL_RCC_ClockConfig>:
 8002014:	e92d 41f0 	stmdb	sp!, {r4, r5, r6, r7, r8, lr}
 8002018:	460d      	mov	r5, r1
 800201a:	4604      	mov	r4, r0
 800201c:	b910      	cbnz	r0, 8002024 <HAL_RCC_ClockConfig+0x10>
 800201e:	2001      	movs	r0, #1
 8002020:	e8bd 81f0 	ldmia.w	sp!, {r4, r5, r6, r7, r8, pc}
 8002024:	4b43      	ldr	r3, [pc, #268]	; (8002134 <HAL_RCC_ClockConfig+0x120>)
 8002026:	681a      	ldr	r2, [r3, #0]
 8002028:	f002 020f 	and.w	r2, r2, #15
 800202c:	428a      	cmp	r2, r1
 800202e:	d328      	bcc.n	8002082 <HAL_RCC_ClockConfig+0x6e>
 8002030:	6821      	ldr	r1, [r4, #0]
 8002032:	078f      	lsls	r7, r1, #30
 8002034:	d42d      	bmi.n	8002092 <HAL_RCC_ClockConfig+0x7e>
 8002036:	07c8      	lsls	r0, r1, #31
 8002038:	d440      	bmi.n	80020bc <HAL_RCC_ClockConfig+0xa8>
 800203a:	4b3e      	ldr	r3, [pc, #248]	; (8002134 <HAL_RCC_ClockConfig+0x120>)
 800203c:	681a      	ldr	r2, [r3, #0]
 800203e:	f002 020f 	and.w	r2, r2, #15
 8002042:	42aa      	cmp	r2, r5
 8002044:	d865      	bhi.n	8002112 <HAL_RCC_ClockConfig+0xfe>
 8002046:	6822      	ldr	r2, [r4, #0]
 8002048:	0751      	lsls	r1, r2, #29
 800204a:	d46b      	bmi.n	8002124 <HAL_RCC_ClockConfig+0x110>
 800204c:	0713      	lsls	r3, r2, #28
 800204e:	d507      	bpl.n	8002060 <HAL_RCC_ClockConfig+0x4c>
 8002050:	4a39      	ldr	r2, [pc, #228]	; (8002138 <HAL_RCC_ClockConfig+0x124>)
 8002052:	6921      	ldr	r1, [r4, #16]
 8002054:	6893      	ldr	r3, [r2, #8]
 8002056:	f423 4360 	bic.w	r3, r3, #57344	; 0xe000
 800205a:	ea43 03c1 	orr.w	r3, r3, r1, lsl #3
 800205e:	6093      	str	r3, [r2, #8]
 8002060:	f7ff ffaa 	bl	8001fb8 <HAL_RCC_GetSysClockFreq>
 8002064:	4b34      	ldr	r3, [pc, #208]	; (8002138 <HAL_RCC_ClockConfig+0x124>)
 8002066:	4a35      	ldr	r2, [pc, #212]	; (800213c <HAL_RCC_ClockConfig+0x128>)
 8002068:	689b      	ldr	r3, [r3, #8]
 800206a:	f3c3 1303 	ubfx	r3, r3, #4, #4
 800206e:	5cd3      	ldrb	r3, [r2, r3]
 8002070:	40d8      	lsrs	r0, r3
 8002072:	4b33      	ldr	r3, [pc, #204]	; (8002140 <HAL_RCC_ClockConfig+0x12c>)
 8002074:	6018      	str	r0, [r3, #0]
 8002076:	4b33      	ldr	r3, [pc, #204]	; (8002144 <HAL_RCC_ClockConfig+0x130>)
 8002078:	6818      	ldr	r0, [r3, #0]
 800207a:	f7fe ff4d 	bl	8000f18 <HAL_InitTick>
 800207e:	2000      	movs	r0, #0
 8002080:	e7ce      	b.n	8002020 <HAL_RCC_ClockConfig+0xc>
 8002082:	b2ca      	uxtb	r2, r1
 8002084:	701a      	strb	r2, [r3, #0]
 8002086:	681b      	ldr	r3, [r3, #0]
 8002088:	f003 030f 	and.w	r3, r3, #15
 800208c:	428b      	cmp	r3, r1
 800208e:	d1c6      	bne.n	800201e <HAL_RCC_ClockConfig+0xa>
 8002090:	e7ce      	b.n	8002030 <HAL_RCC_ClockConfig+0x1c>
 8002092:	4b29      	ldr	r3, [pc, #164]	; (8002138 <HAL_RCC_ClockConfig+0x124>)
 8002094:	f011 0f04 	tst.w	r1, #4
 8002098:	bf1e      	ittt	ne
 800209a:	689a      	ldrne	r2, [r3, #8]
 800209c:	f442 52e0 	orrne.w	r2, r2, #7168	; 0x1c00
 80020a0:	609a      	strne	r2, [r3, #8]
 80020a2:	070e      	lsls	r6, r1, #28
 80020a4:	bf42      	ittt	mi
 80020a6:	689a      	ldrmi	r2, [r3, #8]
 80020a8:	f442 4260 	orrmi.w	r2, r2, #57344	; 0xe000
 80020ac:	609a      	strmi	r2, [r3, #8]
 80020ae:	689a      	ldr	r2, [r3, #8]
 80020b0:	68a0      	ldr	r0, [r4, #8]
 80020b2:	f022 02f0 	bic.w	r2, r2, #240	; 0xf0
 80020b6:	4302      	orrs	r2, r0
 80020b8:	609a      	str	r2, [r3, #8]
 80020ba:	e7bc      	b.n	8002036 <HAL_RCC_ClockConfig+0x22>
 80020bc:	6862      	ldr	r2, [r4, #4]
 80020be:	4b1e      	ldr	r3, [pc, #120]	; (8002138 <HAL_RCC_ClockConfig+0x124>)
 80020c0:	2a01      	cmp	r2, #1
 80020c2:	d11c      	bne.n	80020fe <HAL_RCC_ClockConfig+0xea>
 80020c4:	681b      	ldr	r3, [r3, #0]
 80020c6:	f413 3f00 	tst.w	r3, #131072	; 0x20000
 80020ca:	d0a8      	beq.n	800201e <HAL_RCC_ClockConfig+0xa>
 80020cc:	4e1a      	ldr	r6, [pc, #104]	; (8002138 <HAL_RCC_ClockConfig+0x124>)
 80020ce:	68b3      	ldr	r3, [r6, #8]
 80020d0:	f023 0303 	bic.w	r3, r3, #3
 80020d4:	4313      	orrs	r3, r2
 80020d6:	60b3      	str	r3, [r6, #8]
 80020d8:	f7ff f960 	bl	800139c <HAL_GetTick>
 80020dc:	f241 3888 	movw	r8, #5000	; 0x1388
 80020e0:	4607      	mov	r7, r0
 80020e2:	68b3      	ldr	r3, [r6, #8]
 80020e4:	6862      	ldr	r2, [r4, #4]
 80020e6:	f003 030c 	and.w	r3, r3, #12
 80020ea:	ebb3 0f82 	cmp.w	r3, r2, lsl #2
 80020ee:	d0a4      	beq.n	800203a <HAL_RCC_ClockConfig+0x26>
 80020f0:	f7ff f954 	bl	800139c <HAL_GetTick>
 80020f4:	1bc0      	subs	r0, r0, r7
 80020f6:	4540      	cmp	r0, r8
 80020f8:	d9f3      	bls.n	80020e2 <HAL_RCC_ClockConfig+0xce>
 80020fa:	2003      	movs	r0, #3
 80020fc:	e790      	b.n	8002020 <HAL_RCC_ClockConfig+0xc>
 80020fe:	1e91      	subs	r1, r2, #2
 8002100:	2901      	cmp	r1, #1
 8002102:	681b      	ldr	r3, [r3, #0]
 8002104:	d802      	bhi.n	800210c <HAL_RCC_ClockConfig+0xf8>
 8002106:	f013 7f00 	tst.w	r3, #33554432	; 0x2000000
 800210a:	e7de      	b.n	80020ca <HAL_RCC_ClockConfig+0xb6>
 800210c:	f013 0f02 	tst.w	r3, #2
 8002110:	e7db      	b.n	80020ca <HAL_RCC_ClockConfig+0xb6>
 8002112:	b2ea      	uxtb	r2, r5
 8002114:	701a      	strb	r2, [r3, #0]
 8002116:	681b      	ldr	r3, [r3, #0]
 8002118:	f003 030f 	and.w	r3, r3, #15
 800211c:	42ab      	cmp	r3, r5
 800211e:	f47f af7e 	bne.w	800201e <HAL_RCC_ClockConfig+0xa>
 8002122:	e790      	b.n	8002046 <HAL_RCC_ClockConfig+0x32>
 8002124:	4904      	ldr	r1, [pc, #16]	; (8002138 <HAL_RCC_ClockConfig+0x124>)
 8002126:	68e0      	ldr	r0, [r4, #12]
 8002128:	688b      	ldr	r3, [r1, #8]
 800212a:	f423 53e0 	bic.w	r3, r3, #7168	; 0x1c00
 800212e:	4303      	orrs	r3, r0
 8002130:	608b      	str	r3, [r1, #8]
 8002132:	e78b      	b.n	800204c <HAL_RCC_ClockConfig+0x38>
 8002134:	40023c00 	.word	0x40023c00
 8002138:	40023800 	.word	0x40023800
 800213c:	0800470b 	.word	0x0800470b
 8002140:	20000000 	.word	0x20000000
 8002144:	20000008 	.word	0x20000008

08002148 <HAL_RCC_GetPCLK1Freq>:
 8002148:	4b04      	ldr	r3, [pc, #16]	; (800215c <HAL_RCC_GetPCLK1Freq+0x14>)
 800214a:	4a05      	ldr	r2, [pc, #20]	; (8002160 <HAL_RCC_GetPCLK1Freq+0x18>)
 800214c:	689b      	ldr	r3, [r3, #8]
 800214e:	f3c3 2382 	ubfx	r3, r3, #10, #3
 8002152:	5cd3      	ldrb	r3, [r2, r3]
 8002154:	4a03      	ldr	r2, [pc, #12]	; (8002164 <HAL_RCC_GetPCLK1Freq+0x1c>)
 8002156:	6810      	ldr	r0, [r2, #0]
 8002158:	40d8      	lsrs	r0, r3
 800215a:	4770      	bx	lr
 800215c:	40023800 	.word	0x40023800
 8002160:	0800471b 	.word	0x0800471b
 8002164:	20000000 	.word	0x20000000

08002168 <HAL_RCC_GetPCLK2Freq>:
 8002168:	4b04      	ldr	r3, [pc, #16]	; (800217c <HAL_RCC_GetPCLK2Freq+0x14>)
 800216a:	4a05      	ldr	r2, [pc, #20]	; (8002180 <HAL_RCC_GetPCLK2Freq+0x18>)
 800216c:	689b      	ldr	r3, [r3, #8]
 800216e:	f3c3 3342 	ubfx	r3, r3, #13, #3
 8002172:	5cd3      	ldrb	r3, [r2, r3]
 8002174:	4a03      	ldr	r2, [pc, #12]	; (8002184 <HAL_RCC_GetPCLK2Freq+0x1c>)
 8002176:	6810      	ldr	r0, [r2, #0]
 8002178:	40d8      	lsrs	r0, r3
 800217a:	4770      	bx	lr
 800217c:	40023800 	.word	0x40023800
 8002180:	0800471b 	.word	0x0800471b
 8002184:	20000000 	.word	0x20000000

08002188 <HAL_RCC_GetClockConfig>:
 8002188:	230f      	movs	r3, #15
 800218a:	6003      	str	r3, [r0, #0]
 800218c:	4b0b      	ldr	r3, [pc, #44]	; (80021bc <HAL_RCC_GetClockConfig+0x34>)
 800218e:	689a      	ldr	r2, [r3, #8]
 8002190:	f002 0203 	and.w	r2, r2, #3
 8002194:	6042      	str	r2, [r0, #4]
 8002196:	689a      	ldr	r2, [r3, #8]
 8002198:	f002 02f0 	and.w	r2, r2, #240	; 0xf0
 800219c:	6082      	str	r2, [r0, #8]
 800219e:	689a      	ldr	r2, [r3, #8]
 80021a0:	f402 52e0 	and.w	r2, r2, #7168	; 0x1c00
 80021a4:	60c2      	str	r2, [r0, #12]
 80021a6:	689b      	ldr	r3, [r3, #8]
 80021a8:	08db      	lsrs	r3, r3, #3
 80021aa:	f403 53e0 	and.w	r3, r3, #7168	; 0x1c00
 80021ae:	6103      	str	r3, [r0, #16]
 80021b0:	4b03      	ldr	r3, [pc, #12]	; (80021c0 <HAL_RCC_GetClockConfig+0x38>)
 80021b2:	681b      	ldr	r3, [r3, #0]
 80021b4:	f003 030f 	and.w	r3, r3, #15
 80021b8:	600b      	str	r3, [r1, #0]
 80021ba:	4770      	bx	lr
 80021bc:	40023800 	.word	0x40023800
 80021c0:	40023c00 	.word	0x40023c00

080021c4 <TIM_OC1_SetConfig>:
 80021c4:	6a03      	ldr	r3, [r0, #32]
 80021c6:	f023 0301 	bic.w	r3, r3, #1
 80021ca:	6203      	str	r3, [r0, #32]
 80021cc:	6a03      	ldr	r3, [r0, #32]
 80021ce:	b570      	push	{r4, r5, r6, lr}
 80021d0:	6844      	ldr	r4, [r0, #4]
 80021d2:	6982      	ldr	r2, [r0, #24]
 80021d4:	680d      	ldr	r5, [r1, #0]
 80021d6:	f022 0273 	bic.w	r2, r2, #115	; 0x73
 80021da:	432a      	orrs	r2, r5
 80021dc:	688d      	ldr	r5, [r1, #8]
 80021de:	f023 0302 	bic.w	r3, r3, #2
 80021e2:	432b      	orrs	r3, r5
 80021e4:	4d0e      	ldr	r5, [pc, #56]	; (8002220 <TIM_OC1_SetConfig+0x5c>)
 80021e6:	42a8      	cmp	r0, r5
 80021e8:	d002      	beq.n	80021f0 <TIM_OC1_SetConfig+0x2c>
 80021ea:	4e0e      	ldr	r6, [pc, #56]	; (8002224 <TIM_OC1_SetConfig+0x60>)
 80021ec:	42b0      	cmp	r0, r6
 80021ee:	d110      	bne.n	8002212 <TIM_OC1_SetConfig+0x4e>
 80021f0:	68ce      	ldr	r6, [r1, #12]
 80021f2:	f023 0308 	bic.w	r3, r3, #8
 80021f6:	4333      	orrs	r3, r6
 80021f8:	42a8      	cmp	r0, r5
 80021fa:	f023 0304 	bic.w	r3, r3, #4
 80021fe:	d002      	beq.n	8002206 <TIM_OC1_SetConfig+0x42>
 8002200:	4d08      	ldr	r5, [pc, #32]	; (8002224 <TIM_OC1_SetConfig+0x60>)
 8002202:	42a8      	cmp	r0, r5
 8002204:	d105      	bne.n	8002212 <TIM_OC1_SetConfig+0x4e>
 8002206:	e9d1 5605 	ldrd	r5, r6, [r1, #20]
 800220a:	f424 7440 	bic.w	r4, r4, #768	; 0x300
 800220e:	4335      	orrs	r5, r6
 8002210:	432c      	orrs	r4, r5
 8002212:	6044      	str	r4, [r0, #4]
 8002214:	6182      	str	r2, [r0, #24]
 8002216:	684a      	ldr	r2, [r1, #4]
 8002218:	6342      	str	r2, [r0, #52]	; 0x34
 800221a:	6203      	str	r3, [r0, #32]
 800221c:	bd70      	pop	{r4, r5, r6, pc}
 800221e:	bf00      	nop
 8002220:	40010000 	.word	0x40010000
 8002224:	40010400 	.word	0x40010400

08002228 <TIM_OC3_SetConfig>:
 8002228:	6a03      	ldr	r3, [r0, #32]
 800222a:	f423 7380 	bic.w	r3, r3, #256	; 0x100
 800222e:	6203      	str	r3, [r0, #32]
 8002230:	6a03      	ldr	r3, [r0, #32]
 8002232:	b570      	push	{r4, r5, r6, lr}
 8002234:	6844      	ldr	r4, [r0, #4]
 8002236:	69c2      	ldr	r2, [r0, #28]
 8002238:	680d      	ldr	r5, [r1, #0]
 800223a:	f022 0273 	bic.w	r2, r2, #115	; 0x73
 800223e:	432a      	orrs	r2, r5
 8002240:	688d      	ldr	r5, [r1, #8]
 8002242:	f423 7300 	bic.w	r3, r3, #512	; 0x200
 8002246:	ea43 2305 	orr.w	r3, r3, r5, lsl #8
 800224a:	4d11      	ldr	r5, [pc, #68]	; (8002290 <TIM_OC3_SetConfig+0x68>)
 800224c:	42a8      	cmp	r0, r5
 800224e:	d003      	beq.n	8002258 <TIM_OC3_SetConfig+0x30>
 8002250:	f505 6580 	add.w	r5, r5, #1024	; 0x400
 8002254:	42a8      	cmp	r0, r5
 8002256:	d114      	bne.n	8002282 <TIM_OC3_SetConfig+0x5a>
 8002258:	68cd      	ldr	r5, [r1, #12]
 800225a:	f423 6300 	bic.w	r3, r3, #2048	; 0x800
 800225e:	ea43 2305 	orr.w	r3, r3, r5, lsl #8
 8002262:	4d0b      	ldr	r5, [pc, #44]	; (8002290 <TIM_OC3_SetConfig+0x68>)
 8002264:	42a8      	cmp	r0, r5
 8002266:	f423 6380 	bic.w	r3, r3, #1024	; 0x400
 800226a:	d003      	beq.n	8002274 <TIM_OC3_SetConfig+0x4c>
 800226c:	f505 6580 	add.w	r5, r5, #1024	; 0x400
 8002270:	42a8      	cmp	r0, r5
 8002272:	d106      	bne.n	8002282 <TIM_OC3_SetConfig+0x5a>
 8002274:	e9d1 5605 	ldrd	r5, r6, [r1, #20]
 8002278:	f424 5440 	bic.w	r4, r4, #12288	; 0x3000
 800227c:	4335      	orrs	r5, r6
 800227e:	ea44 1405 	orr.w	r4, r4, r5, lsl #4
 8002282:	6044      	str	r4, [r0, #4]
 8002284:	61c2      	str	r2, [r0, #28]
 8002286:	684a      	ldr	r2, [r1, #4]
 8002288:	63c2      	str	r2, [r0, #60]	; 0x3c
 800228a:	6203      	str	r3, [r0, #32]
 800228c:	bd70      	pop	{r4, r5, r6, pc}
 800228e:	bf00      	nop
 8002290:	40010000 	.word	0x40010000

08002294 <TIM_OC4_SetConfig>:
 8002294:	6a03      	ldr	r3, [r0, #32]
 8002296:	f423 5380 	bic.w	r3, r3, #4096	; 0x1000
 800229a:	6203      	str	r3, [r0, #32]
 800229c:	6a03      	ldr	r3, [r0, #32]
 800229e:	b530      	push	{r4, r5, lr}
 80022a0:	6844      	ldr	r4, [r0, #4]
 80022a2:	69c2      	ldr	r2, [r0, #28]
 80022a4:	680d      	ldr	r5, [r1, #0]
 80022a6:	f422 42e6 	bic.w	r2, r2, #29440	; 0x7300
 80022aa:	ea42 2205 	orr.w	r2, r2, r5, lsl #8
 80022ae:	688d      	ldr	r5, [r1, #8]
 80022b0:	f423 5300 	bic.w	r3, r3, #8192	; 0x2000
 80022b4:	ea43 3305 	orr.w	r3, r3, r5, lsl #12
 80022b8:	4d08      	ldr	r5, [pc, #32]	; (80022dc <TIM_OC4_SetConfig+0x48>)
 80022ba:	42a8      	cmp	r0, r5
 80022bc:	d003      	beq.n	80022c6 <TIM_OC4_SetConfig+0x32>
 80022be:	f505 6580 	add.w	r5, r5, #1024	; 0x400
 80022c2:	42a8      	cmp	r0, r5
 80022c4:	d104      	bne.n	80022d0 <TIM_OC4_SetConfig+0x3c>
 80022c6:	694d      	ldr	r5, [r1, #20]
 80022c8:	f424 4480 	bic.w	r4, r4, #16384	; 0x4000
 80022cc:	ea44 1485 	orr.w	r4, r4, r5, lsl #6
 80022d0:	6044      	str	r4, [r0, #4]
 80022d2:	61c2      	str	r2, [r0, #28]
 80022d4:	684a      	ldr	r2, [r1, #4]
 80022d6:	6402      	str	r2, [r0, #64]	; 0x40
 80022d8:	6203      	str	r3, [r0, #32]
 80022da:	bd30      	pop	{r4, r5, pc}
 80022dc:	40010000 	.word	0x40010000

080022e0 <HAL_TIM_Base_MspInit>:
 80022e0:	4770      	bx	lr

080022e2 <HAL_TIM_Base_Start_IT>:
 80022e2:	6803      	ldr	r3, [r0, #0]
 80022e4:	68da      	ldr	r2, [r3, #12]
 80022e6:	f042 0201 	orr.w	r2, r2, #1
 80022ea:	60da      	str	r2, [r3, #12]
 80022ec:	689a      	ldr	r2, [r3, #8]
 80022ee:	f002 0207 	and.w	r2, r2, #7
 80022f2:	2a06      	cmp	r2, #6
 80022f4:	bf1e      	ittt	ne
 80022f6:	681a      	ldrne	r2, [r3, #0]
 80022f8:	f042 0201 	orrne.w	r2, r2, #1
 80022fc:	601a      	strne	r2, [r3, #0]
 80022fe:	2000      	movs	r0, #0
 8002300:	4770      	bx	lr

08002302 <HAL_TIM_OC_DelayElapsedCallback>:
 8002302:	4770      	bx	lr

08002304 <HAL_TIM_IC_CaptureCallback>:
 8002304:	4770      	bx	lr

08002306 <HAL_TIM_PWM_PulseFinishedCallback>:
 8002306:	4770      	bx	lr

08002308 <HAL_TIM_TriggerCallback>:
 8002308:	4770      	bx	lr

0800230a <HAL_TIM_IRQHandler>:
 800230a:	6803      	ldr	r3, [r0, #0]
 800230c:	691a      	ldr	r2, [r3, #16]
 800230e:	0791      	lsls	r1, r2, #30
 8002310:	b510      	push	{r4, lr}
 8002312:	4604      	mov	r4, r0
 8002314:	d50e      	bpl.n	8002334 <HAL_TIM_IRQHandler+0x2a>
 8002316:	68da      	ldr	r2, [r3, #12]
 8002318:	0792      	lsls	r2, r2, #30
 800231a:	d50b      	bpl.n	8002334 <HAL_TIM_IRQHandler+0x2a>
 800231c:	f06f 0202 	mvn.w	r2, #2
 8002320:	611a      	str	r2, [r3, #16]
 8002322:	699b      	ldr	r3, [r3, #24]
 8002324:	2201      	movs	r2, #1
 8002326:	079b      	lsls	r3, r3, #30
 8002328:	7702      	strb	r2, [r0, #28]
 800232a:	d077      	beq.n	800241c <HAL_TIM_IRQHandler+0x112>
 800232c:	f7ff ffea 	bl	8002304 <HAL_TIM_IC_CaptureCallback>
 8002330:	2300      	movs	r3, #0
 8002332:	7723      	strb	r3, [r4, #28]
 8002334:	6823      	ldr	r3, [r4, #0]
 8002336:	691a      	ldr	r2, [r3, #16]
 8002338:	0750      	lsls	r0, r2, #29
 800233a:	d510      	bpl.n	800235e <HAL_TIM_IRQHandler+0x54>
 800233c:	68da      	ldr	r2, [r3, #12]
 800233e:	0751      	lsls	r1, r2, #29
 8002340:	d50d      	bpl.n	800235e <HAL_TIM_IRQHandler+0x54>
 8002342:	f06f 0204 	mvn.w	r2, #4
 8002346:	611a      	str	r2, [r3, #16]
 8002348:	699b      	ldr	r3, [r3, #24]
 800234a:	2202      	movs	r2, #2
 800234c:	f413 7f40 	tst.w	r3, #768	; 0x300
 8002350:	7722      	strb	r2, [r4, #28]
 8002352:	4620      	mov	r0, r4
 8002354:	d068      	beq.n	8002428 <HAL_TIM_IRQHandler+0x11e>
 8002356:	f7ff ffd5 	bl	8002304 <HAL_TIM_IC_CaptureCallback>
 800235a:	2300      	movs	r3, #0
 800235c:	7723      	strb	r3, [r4, #28]
 800235e:	6823      	ldr	r3, [r4, #0]
 8002360:	691a      	ldr	r2, [r3, #16]
 8002362:	0712      	lsls	r2, r2, #28
 8002364:	d50f      	bpl.n	8002386 <HAL_TIM_IRQHandler+0x7c>
 8002366:	68da      	ldr	r2, [r3, #12]
 8002368:	0710      	lsls	r0, r2, #28
 800236a:	d50c      	bpl.n	8002386 <HAL_TIM_IRQHandler+0x7c>
 800236c:	f06f 0208 	mvn.w	r2, #8
 8002370:	611a      	str	r2, [r3, #16]
 8002372:	69db      	ldr	r3, [r3, #28]
 8002374:	2204      	movs	r2, #4
 8002376:	0799      	lsls	r1, r3, #30
 8002378:	7722      	strb	r2, [r4, #28]
 800237a:	4620      	mov	r0, r4
 800237c:	d05a      	beq.n	8002434 <HAL_TIM_IRQHandler+0x12a>
 800237e:	f7ff ffc1 	bl	8002304 <HAL_TIM_IC_CaptureCallback>
 8002382:	2300      	movs	r3, #0
 8002384:	7723      	strb	r3, [r4, #28]
 8002386:	6823      	ldr	r3, [r4, #0]
 8002388:	691a      	ldr	r2, [r3, #16]
 800238a:	06d2      	lsls	r2, r2, #27
 800238c:	d510      	bpl.n	80023b0 <HAL_TIM_IRQHandler+0xa6>
 800238e:	68da      	ldr	r2, [r3, #12]
 8002390:	06d0      	lsls	r0, r2, #27
 8002392:	d50d      	bpl.n	80023b0 <HAL_TIM_IRQHandler+0xa6>
 8002394:	f06f 0210 	mvn.w	r2, #16
 8002398:	611a      	str	r2, [r3, #16]
 800239a:	69db      	ldr	r3, [r3, #28]
 800239c:	2208      	movs	r2, #8
 800239e:	f413 7f40 	tst.w	r3, #768	; 0x300
 80023a2:	7722      	strb	r2, [r4, #28]
 80023a4:	4620      	mov	r0, r4
 80023a6:	d04b      	beq.n	8002440 <HAL_TIM_IRQHandler+0x136>
 80023a8:	f7ff ffac 	bl	8002304 <HAL_TIM_IC_CaptureCallback>
 80023ac:	2300      	movs	r3, #0
 80023ae:	7723      	strb	r3, [r4, #28]
 80023b0:	6823      	ldr	r3, [r4, #0]
 80023b2:	691a      	ldr	r2, [r3, #16]
 80023b4:	07d1      	lsls	r1, r2, #31
 80023b6:	d508      	bpl.n	80023ca <HAL_TIM_IRQHandler+0xc0>
 80023b8:	68da      	ldr	r2, [r3, #12]
 80023ba:	07d2      	lsls	r2, r2, #31
 80023bc:	d505      	bpl.n	80023ca <HAL_TIM_IRQHandler+0xc0>
 80023be:	f06f 0201 	mvn.w	r2, #1
 80023c2:	611a      	str	r2, [r3, #16]
 80023c4:	4620      	mov	r0, r4
 80023c6:	f7fe fd7b 	bl	8000ec0 <HAL_TIM_PeriodElapsedCallback>
 80023ca:	6823      	ldr	r3, [r4, #0]
 80023cc:	691a      	ldr	r2, [r3, #16]
 80023ce:	0610      	lsls	r0, r2, #24
 80023d0:	d508      	bpl.n	80023e4 <HAL_TIM_IRQHandler+0xda>
 80023d2:	68da      	ldr	r2, [r3, #12]
 80023d4:	0611      	lsls	r1, r2, #24
 80023d6:	d505      	bpl.n	80023e4 <HAL_TIM_IRQHandler+0xda>
 80023d8:	f06f 0280 	mvn.w	r2, #128	; 0x80
 80023dc:	611a      	str	r2, [r3, #16]
 80023de:	4620      	mov	r0, r4
 80023e0:	f000 f9db 	bl	800279a <HAL_TIMEx_BreakCallback>
 80023e4:	6823      	ldr	r3, [r4, #0]
 80023e6:	691a      	ldr	r2, [r3, #16]
 80023e8:	0652      	lsls	r2, r2, #25
 80023ea:	d508      	bpl.n	80023fe <HAL_TIM_IRQHandler+0xf4>
 80023ec:	68da      	ldr	r2, [r3, #12]
 80023ee:	0650      	lsls	r0, r2, #25
 80023f0:	d505      	bpl.n	80023fe <HAL_TIM_IRQHandler+0xf4>
 80023f2:	f06f 0240 	mvn.w	r2, #64	; 0x40
 80023f6:	611a      	str	r2, [r3, #16]
 80023f8:	4620      	mov	r0, r4
 80023fa:	f7ff ff85 	bl	8002308 <HAL_TIM_TriggerCallback>
 80023fe:	6823      	ldr	r3, [r4, #0]
 8002400:	691a      	ldr	r2, [r3, #16]
 8002402:	0691      	lsls	r1, r2, #26
 8002404:	d522      	bpl.n	800244c <HAL_TIM_IRQHandler+0x142>
 8002406:	68da      	ldr	r2, [r3, #12]
 8002408:	0692      	lsls	r2, r2, #26
 800240a:	d51f      	bpl.n	800244c <HAL_TIM_IRQHandler+0x142>
 800240c:	f06f 0220 	mvn.w	r2, #32
 8002410:	4620      	mov	r0, r4
 8002412:	611a      	str	r2, [r3, #16]
 8002414:	e8bd 4010 	ldmia.w	sp!, {r4, lr}
 8002418:	f000 b9be 	b.w	8002798 <HAL_TIMEx_CommutCallback>
 800241c:	f7ff ff71 	bl	8002302 <HAL_TIM_OC_DelayElapsedCallback>
 8002420:	4620      	mov	r0, r4
 8002422:	f7ff ff70 	bl	8002306 <HAL_TIM_PWM_PulseFinishedCallback>
 8002426:	e783      	b.n	8002330 <HAL_TIM_IRQHandler+0x26>
 8002428:	f7ff ff6b 	bl	8002302 <HAL_TIM_OC_DelayElapsedCallback>
 800242c:	4620      	mov	r0, r4
 800242e:	f7ff ff6a 	bl	8002306 <HAL_TIM_PWM_PulseFinishedCallback>
 8002432:	e792      	b.n	800235a <HAL_TIM_IRQHandler+0x50>
 8002434:	f7ff ff65 	bl	8002302 <HAL_TIM_OC_DelayElapsedCallback>
 8002438:	4620      	mov	r0, r4
 800243a:	f7ff ff64 	bl	8002306 <HAL_TIM_PWM_PulseFinishedCallback>
 800243e:	e7a0      	b.n	8002382 <HAL_TIM_IRQHandler+0x78>
 8002440:	f7ff ff5f 	bl	8002302 <HAL_TIM_OC_DelayElapsedCallback>
 8002444:	4620      	mov	r0, r4
 8002446:	f7ff ff5e 	bl	8002306 <HAL_TIM_PWM_PulseFinishedCallback>
 800244a:	e7af      	b.n	80023ac <HAL_TIM_IRQHandler+0xa2>
 800244c:	bd10      	pop	{r4, pc}
	...

08002450 <TIM_Base_SetConfig>:
 8002450:	4a30      	ldr	r2, [pc, #192]	; (8002514 <TIM_Base_SetConfig+0xc4>)
 8002452:	6803      	ldr	r3, [r0, #0]
 8002454:	4290      	cmp	r0, r2
 8002456:	d012      	beq.n	800247e <TIM_Base_SetConfig+0x2e>
 8002458:	f1b0 4f80 	cmp.w	r0, #1073741824	; 0x40000000
 800245c:	d00f      	beq.n	800247e <TIM_Base_SetConfig+0x2e>
 800245e:	f5a2 427c 	sub.w	r2, r2, #64512	; 0xfc00
 8002462:	4290      	cmp	r0, r2
 8002464:	d00b      	beq.n	800247e <TIM_Base_SetConfig+0x2e>
 8002466:	f502 6280 	add.w	r2, r2, #1024	; 0x400
 800246a:	4290      	cmp	r0, r2
 800246c:	d007      	beq.n	800247e <TIM_Base_SetConfig+0x2e>
 800246e:	f502 6280 	add.w	r2, r2, #1024	; 0x400
 8002472:	4290      	cmp	r0, r2
 8002474:	d003      	beq.n	800247e <TIM_Base_SetConfig+0x2e>
 8002476:	f502 4278 	add.w	r2, r2, #63488	; 0xf800
 800247a:	4290      	cmp	r0, r2
 800247c:	d119      	bne.n	80024b2 <TIM_Base_SetConfig+0x62>
 800247e:	684a      	ldr	r2, [r1, #4]
 8002480:	f023 0370 	bic.w	r3, r3, #112	; 0x70
 8002484:	4313      	orrs	r3, r2
 8002486:	4a23      	ldr	r2, [pc, #140]	; (8002514 <TIM_Base_SetConfig+0xc4>)
 8002488:	4290      	cmp	r0, r2
 800248a:	d029      	beq.n	80024e0 <TIM_Base_SetConfig+0x90>
 800248c:	f1b0 4f80 	cmp.w	r0, #1073741824	; 0x40000000
 8002490:	d026      	beq.n	80024e0 <TIM_Base_SetConfig+0x90>
 8002492:	f5a2 427c 	sub.w	r2, r2, #64512	; 0xfc00
 8002496:	4290      	cmp	r0, r2
 8002498:	d022      	beq.n	80024e0 <TIM_Base_SetConfig+0x90>
 800249a:	f502 6280 	add.w	r2, r2, #1024	; 0x400
 800249e:	4290      	cmp	r0, r2
 80024a0:	d01e      	beq.n	80024e0 <TIM_Base_SetConfig+0x90>
 80024a2:	f502 6280 	add.w	r2, r2, #1024	; 0x400
 80024a6:	4290      	cmp	r0, r2
 80024a8:	d01a      	beq.n	80024e0 <TIM_Base_SetConfig+0x90>
 80024aa:	f502 4278 	add.w	r2, r2, #63488	; 0xf800
 80024ae:	4290      	cmp	r0, r2
 80024b0:	d016      	beq.n	80024e0 <TIM_Base_SetConfig+0x90>
 80024b2:	4a19      	ldr	r2, [pc, #100]	; (8002518 <TIM_Base_SetConfig+0xc8>)
 80024b4:	4290      	cmp	r0, r2
 80024b6:	d013      	beq.n	80024e0 <TIM_Base_SetConfig+0x90>
 80024b8:	f502 6280 	add.w	r2, r2, #1024	; 0x400
 80024bc:	4290      	cmp	r0, r2
 80024be:	d00f      	beq.n	80024e0 <TIM_Base_SetConfig+0x90>
 80024c0:	f502 6280 	add.w	r2, r2, #1024	; 0x400
 80024c4:	4290      	cmp	r0, r2
 80024c6:	d00b      	beq.n	80024e0 <TIM_Base_SetConfig+0x90>
 80024c8:	f5a2 3298 	sub.w	r2, r2, #77824	; 0x13000
 80024cc:	4290      	cmp	r0, r2
 80024ce:	d007      	beq.n	80024e0 <TIM_Base_SetConfig+0x90>
 80024d0:	f502 6280 	add.w	r2, r2, #1024	; 0x400
 80024d4:	4290      	cmp	r0, r2
 80024d6:	d003      	beq.n	80024e0 <TIM_Base_SetConfig+0x90>
 80024d8:	f502 6280 	add.w	r2, r2, #1024	; 0x400
 80024dc:	4290      	cmp	r0, r2
 80024de:	d103      	bne.n	80024e8 <TIM_Base_SetConfig+0x98>
 80024e0:	68ca      	ldr	r2, [r1, #12]
 80024e2:	f423 7340 	bic.w	r3, r3, #768	; 0x300
 80024e6:	4313      	orrs	r3, r2
 80024e8:	694a      	ldr	r2, [r1, #20]
 80024ea:	f023 0380 	bic.w	r3, r3, #128	; 0x80
 80024ee:	4313      	orrs	r3, r2
 80024f0:	6003      	str	r3, [r0, #0]
 80024f2:	688b      	ldr	r3, [r1, #8]
 80024f4:	62c3      	str	r3, [r0, #44]	; 0x2c
 80024f6:	680b      	ldr	r3, [r1, #0]
 80024f8:	6283      	str	r3, [r0, #40]	; 0x28
 80024fa:	4b06      	ldr	r3, [pc, #24]	; (8002514 <TIM_Base_SetConfig+0xc4>)
 80024fc:	4298      	cmp	r0, r3
 80024fe:	d003      	beq.n	8002508 <TIM_Base_SetConfig+0xb8>
 8002500:	f503 6380 	add.w	r3, r3, #1024	; 0x400
 8002504:	4298      	cmp	r0, r3
 8002506:	d101      	bne.n	800250c <TIM_Base_SetConfig+0xbc>
 8002508:	690b      	ldr	r3, [r1, #16]
 800250a:	6303      	str	r3, [r0, #48]	; 0x30
 800250c:	2301      	movs	r3, #1
 800250e:	6143      	str	r3, [r0, #20]
 8002510:	4770      	bx	lr
 8002512:	bf00      	nop
 8002514:	40010000 	.word	0x40010000
 8002518:	40014000 	.word	0x40014000

0800251c <HAL_TIM_Base_Init>:
 800251c:	b510      	push	{r4, lr}
 800251e:	4604      	mov	r4, r0
 8002520:	b1a0      	cbz	r0, 800254c <HAL_TIM_Base_Init+0x30>
 8002522:	f890 303d 	ldrb.w	r3, [r0, #61]	; 0x3d
 8002526:	f003 02ff 	and.w	r2, r3, #255	; 0xff
 800252a:	b91b      	cbnz	r3, 8002534 <HAL_TIM_Base_Init+0x18>
 800252c:	f880 203c 	strb.w	r2, [r0, #60]	; 0x3c
 8002530:	f7ff fed6 	bl	80022e0 <HAL_TIM_Base_MspInit>
 8002534:	2302      	movs	r3, #2
 8002536:	f884 303d 	strb.w	r3, [r4, #61]	; 0x3d
 800253a:	6820      	ldr	r0, [r4, #0]
 800253c:	1d21      	adds	r1, r4, #4
 800253e:	f7ff ff87 	bl	8002450 <TIM_Base_SetConfig>
 8002542:	2301      	movs	r3, #1
 8002544:	f884 303d 	strb.w	r3, [r4, #61]	; 0x3d
 8002548:	2000      	movs	r0, #0
 800254a:	bd10      	pop	{r4, pc}
 800254c:	2001      	movs	r0, #1
 800254e:	e7fc      	b.n	800254a <HAL_TIM_Base_Init+0x2e>

08002550 <HAL_TIM_PWM_Init>:
 8002550:	b510      	push	{r4, lr}
 8002552:	4604      	mov	r4, r0
 8002554:	b1a0      	cbz	r0, 8002580 <HAL_TIM_PWM_Init+0x30>
 8002556:	f890 303d 	ldrb.w	r3, [r0, #61]	; 0x3d
 800255a:	f003 02ff 	and.w	r2, r3, #255	; 0xff
 800255e:	b91b      	cbnz	r3, 8002568 <HAL_TIM_PWM_Init+0x18>
 8002560:	f880 203c 	strb.w	r2, [r0, #60]	; 0x3c
 8002564:	f7fe fd84 	bl	8001070 <HAL_TIM_PWM_MspInit>
 8002568:	2302      	movs	r3, #2
 800256a:	f884 303d 	strb.w	r3, [r4, #61]	; 0x3d
 800256e:	6820      	ldr	r0, [r4, #0]
 8002570:	1d21      	adds	r1, r4, #4
 8002572:	f7ff ff6d 	bl	8002450 <TIM_Base_SetConfig>
 8002576:	2301      	movs	r3, #1
 8002578:	f884 303d 	strb.w	r3, [r4, #61]	; 0x3d
 800257c:	2000      	movs	r0, #0
 800257e:	bd10      	pop	{r4, pc}
 8002580:	2001      	movs	r0, #1
 8002582:	e7fc      	b.n	800257e <HAL_TIM_PWM_Init+0x2e>

08002584 <TIM_OC2_SetConfig>:
 8002584:	6a03      	ldr	r3, [r0, #32]
 8002586:	f023 0310 	bic.w	r3, r3, #16
 800258a:	6203      	str	r3, [r0, #32]
 800258c:	6a03      	ldr	r3, [r0, #32]
 800258e:	b570      	push	{r4, r5, r6, lr}
 8002590:	6844      	ldr	r4, [r0, #4]
 8002592:	6982      	ldr	r2, [r0, #24]
 8002594:	680d      	ldr	r5, [r1, #0]
 8002596:	f422 42e6 	bic.w	r2, r2, #29440	; 0x7300
 800259a:	ea42 2205 	orr.w	r2, r2, r5, lsl #8
 800259e:	688d      	ldr	r5, [r1, #8]
 80025a0:	f023 0320 	bic.w	r3, r3, #32
 80025a4:	ea43 1305 	orr.w	r3, r3, r5, lsl #4
 80025a8:	4d10      	ldr	r5, [pc, #64]	; (80025ec <TIM_OC2_SetConfig+0x68>)
 80025aa:	42a8      	cmp	r0, r5
 80025ac:	d003      	beq.n	80025b6 <TIM_OC2_SetConfig+0x32>
 80025ae:	f505 6580 	add.w	r5, r5, #1024	; 0x400
 80025b2:	42a8      	cmp	r0, r5
 80025b4:	d114      	bne.n	80025e0 <TIM_OC2_SetConfig+0x5c>
 80025b6:	68cd      	ldr	r5, [r1, #12]
 80025b8:	f023 0380 	bic.w	r3, r3, #128	; 0x80
 80025bc:	ea43 1305 	orr.w	r3, r3, r5, lsl #4
 80025c0:	4d0a      	ldr	r5, [pc, #40]	; (80025ec <TIM_OC2_SetConfig+0x68>)
 80025c2:	42a8      	cmp	r0, r5
 80025c4:	f023 0340 	bic.w	r3, r3, #64	; 0x40
 80025c8:	d003      	beq.n	80025d2 <TIM_OC2_SetConfig+0x4e>
 80025ca:	f505 6580 	add.w	r5, r5, #1024	; 0x400
 80025ce:	42a8      	cmp	r0, r5
 80025d0:	d106      	bne.n	80025e0 <TIM_OC2_SetConfig+0x5c>
 80025d2:	e9d1 5605 	ldrd	r5, r6, [r1, #20]
 80025d6:	f424 6440 	bic.w	r4, r4, #3072	; 0xc00
 80025da:	4335      	orrs	r5, r6
 80025dc:	ea44 0485 	orr.w	r4, r4, r5, lsl #2
 80025e0:	6044      	str	r4, [r0, #4]
 80025e2:	6182      	str	r2, [r0, #24]
 80025e4:	684a      	ldr	r2, [r1, #4]
 80025e6:	6382      	str	r2, [r0, #56]	; 0x38
 80025e8:	6203      	str	r3, [r0, #32]
 80025ea:	bd70      	pop	{r4, r5, r6, pc}
 80025ec:	40010000 	.word	0x40010000

080025f0 <HAL_TIM_PWM_ConfigChannel>:
 80025f0:	b538      	push	{r3, r4, r5, lr}
 80025f2:	f890 303c 	ldrb.w	r3, [r0, #60]	; 0x3c
 80025f6:	2b01      	cmp	r3, #1
 80025f8:	4604      	mov	r4, r0
 80025fa:	f04f 0002 	mov.w	r0, #2
 80025fe:	d025      	beq.n	800264c <HAL_TIM_PWM_ConfigChannel+0x5c>
 8002600:	2301      	movs	r3, #1
 8002602:	f884 303c 	strb.w	r3, [r4, #60]	; 0x3c
 8002606:	f884 003d 	strb.w	r0, [r4, #61]	; 0x3d
 800260a:	2a0c      	cmp	r2, #12
 800260c:	d818      	bhi.n	8002640 <HAL_TIM_PWM_ConfigChannel+0x50>
 800260e:	e8df f002 	tbb	[pc, r2]
 8002612:	1707      	.short	0x1707
 8002614:	171e1717 	.word	0x171e1717
 8002618:	172f1717 	.word	0x172f1717
 800261c:	1717      	.short	0x1717
 800261e:	40          	.byte	0x40
 800261f:	00          	.byte	0x00
 8002620:	6820      	ldr	r0, [r4, #0]
 8002622:	f7ff fdcf 	bl	80021c4 <TIM_OC1_SetConfig>
 8002626:	6823      	ldr	r3, [r4, #0]
 8002628:	6909      	ldr	r1, [r1, #16]
 800262a:	699a      	ldr	r2, [r3, #24]
 800262c:	f042 0208 	orr.w	r2, r2, #8
 8002630:	619a      	str	r2, [r3, #24]
 8002632:	699a      	ldr	r2, [r3, #24]
 8002634:	f022 0204 	bic.w	r2, r2, #4
 8002638:	619a      	str	r2, [r3, #24]
 800263a:	699a      	ldr	r2, [r3, #24]
 800263c:	430a      	orrs	r2, r1
 800263e:	619a      	str	r2, [r3, #24]
 8002640:	2301      	movs	r3, #1
 8002642:	2000      	movs	r0, #0
 8002644:	f884 303d 	strb.w	r3, [r4, #61]	; 0x3d
 8002648:	f884 003c 	strb.w	r0, [r4, #60]	; 0x3c
 800264c:	bd38      	pop	{r3, r4, r5, pc}
 800264e:	6820      	ldr	r0, [r4, #0]
 8002650:	f7ff ff98 	bl	8002584 <TIM_OC2_SetConfig>
 8002654:	6823      	ldr	r3, [r4, #0]
 8002656:	6909      	ldr	r1, [r1, #16]
 8002658:	699a      	ldr	r2, [r3, #24]
 800265a:	f442 6200 	orr.w	r2, r2, #2048	; 0x800
 800265e:	619a      	str	r2, [r3, #24]
 8002660:	699a      	ldr	r2, [r3, #24]
 8002662:	f422 6280 	bic.w	r2, r2, #1024	; 0x400
 8002666:	619a      	str	r2, [r3, #24]
 8002668:	699a      	ldr	r2, [r3, #24]
 800266a:	ea42 2201 	orr.w	r2, r2, r1, lsl #8
 800266e:	e7e6      	b.n	800263e <HAL_TIM_PWM_ConfigChannel+0x4e>
 8002670:	6820      	ldr	r0, [r4, #0]
 8002672:	f7ff fdd9 	bl	8002228 <TIM_OC3_SetConfig>
 8002676:	6823      	ldr	r3, [r4, #0]
 8002678:	6909      	ldr	r1, [r1, #16]
 800267a:	69da      	ldr	r2, [r3, #28]
 800267c:	f042 0208 	orr.w	r2, r2, #8
 8002680:	61da      	str	r2, [r3, #28]
 8002682:	69da      	ldr	r2, [r3, #28]
 8002684:	f022 0204 	bic.w	r2, r2, #4
 8002688:	61da      	str	r2, [r3, #28]
 800268a:	69da      	ldr	r2, [r3, #28]
 800268c:	430a      	orrs	r2, r1
 800268e:	61da      	str	r2, [r3, #28]
 8002690:	e7d6      	b.n	8002640 <HAL_TIM_PWM_ConfigChannel+0x50>
 8002692:	6820      	ldr	r0, [r4, #0]
 8002694:	f7ff fdfe 	bl	8002294 <TIM_OC4_SetConfig>
 8002698:	6823      	ldr	r3, [r4, #0]
 800269a:	6909      	ldr	r1, [r1, #16]
 800269c:	69da      	ldr	r2, [r3, #28]
 800269e:	f442 6200 	orr.w	r2, r2, #2048	; 0x800
 80026a2:	61da      	str	r2, [r3, #28]
 80026a4:	69da      	ldr	r2, [r3, #28]
 80026a6:	f422 6280 	bic.w	r2, r2, #1024	; 0x400
 80026aa:	61da      	str	r2, [r3, #28]
 80026ac:	69da      	ldr	r2, [r3, #28]
 80026ae:	ea42 2201 	orr.w	r2, r2, r1, lsl #8
 80026b2:	e7ec      	b.n	800268e <HAL_TIM_PWM_ConfigChannel+0x9e>

080026b4 <TIM_CCxChannelCmd>:
 80026b4:	6a03      	ldr	r3, [r0, #32]
 80026b6:	f001 011f 	and.w	r1, r1, #31
 80026ba:	b510      	push	{r4, lr}
 80026bc:	2401      	movs	r4, #1
 80026be:	408c      	lsls	r4, r1
 80026c0:	ea23 0304 	bic.w	r3, r3, r4
 80026c4:	6203      	str	r3, [r0, #32]
 80026c6:	6a03      	ldr	r3, [r0, #32]
 80026c8:	408a      	lsls	r2, r1
 80026ca:	431a      	orrs	r2, r3
 80026cc:	6202      	str	r2, [r0, #32]
 80026ce:	bd10      	pop	{r4, pc}

080026d0 <HAL_TIM_OC_Start>:
 80026d0:	b510      	push	{r4, lr}
 80026d2:	4604      	mov	r4, r0
 80026d4:	2201      	movs	r2, #1
 80026d6:	6800      	ldr	r0, [r0, #0]
 80026d8:	f7ff ffec 	bl	80026b4 <TIM_CCxChannelCmd>
 80026dc:	6823      	ldr	r3, [r4, #0]
 80026de:	4a0b      	ldr	r2, [pc, #44]	; (800270c <HAL_TIM_OC_Start+0x3c>)
 80026e0:	4293      	cmp	r3, r2
 80026e2:	d003      	beq.n	80026ec <HAL_TIM_OC_Start+0x1c>
 80026e4:	f502 6280 	add.w	r2, r2, #1024	; 0x400
 80026e8:	4293      	cmp	r3, r2
 80026ea:	d103      	bne.n	80026f4 <HAL_TIM_OC_Start+0x24>
 80026ec:	6c5a      	ldr	r2, [r3, #68]	; 0x44
 80026ee:	f442 4200 	orr.w	r2, r2, #32768	; 0x8000
 80026f2:	645a      	str	r2, [r3, #68]	; 0x44
 80026f4:	689a      	ldr	r2, [r3, #8]
 80026f6:	f002 0207 	and.w	r2, r2, #7
 80026fa:	2a06      	cmp	r2, #6
 80026fc:	bf1e      	ittt	ne
 80026fe:	681a      	ldrne	r2, [r3, #0]
 8002700:	f042 0201 	orrne.w	r2, r2, #1
 8002704:	601a      	strne	r2, [r3, #0]
 8002706:	2000      	movs	r0, #0
 8002708:	bd10      	pop	{r4, pc}
 800270a:	bf00      	nop
 800270c:	40010000 	.word	0x40010000

08002710 <HAL_TIM_PWM_Start>:
 8002710:	f7ff bfde 	b.w	80026d0 <HAL_TIM_OC_Start>

08002714 <HAL_TIMEx_MasterConfigSynchronization>:
 8002714:	f890 303c 	ldrb.w	r3, [r0, #60]	; 0x3c
 8002718:	2b01      	cmp	r3, #1
 800271a:	b530      	push	{r4, r5, lr}
 800271c:	f04f 0302 	mov.w	r3, #2
 8002720:	d035      	beq.n	800278e <HAL_TIMEx_MasterConfigSynchronization+0x7a>
 8002722:	f880 303d 	strb.w	r3, [r0, #61]	; 0x3d
 8002726:	6803      	ldr	r3, [r0, #0]
 8002728:	680d      	ldr	r5, [r1, #0]
 800272a:	685c      	ldr	r4, [r3, #4]
 800272c:	f024 0470 	bic.w	r4, r4, #112	; 0x70
 8002730:	2201      	movs	r2, #1
 8002732:	432c      	orrs	r4, r5
 8002734:	f880 203c 	strb.w	r2, [r0, #60]	; 0x3c
 8002738:	689a      	ldr	r2, [r3, #8]
 800273a:	605c      	str	r4, [r3, #4]
 800273c:	4c15      	ldr	r4, [pc, #84]	; (8002794 <HAL_TIMEx_MasterConfigSynchronization+0x80>)
 800273e:	42a3      	cmp	r3, r4
 8002740:	d01a      	beq.n	8002778 <HAL_TIMEx_MasterConfigSynchronization+0x64>
 8002742:	f1b3 4f80 	cmp.w	r3, #1073741824	; 0x40000000
 8002746:	d017      	beq.n	8002778 <HAL_TIMEx_MasterConfigSynchronization+0x64>
 8002748:	f5a4 447c 	sub.w	r4, r4, #64512	; 0xfc00
 800274c:	42a3      	cmp	r3, r4
 800274e:	d013      	beq.n	8002778 <HAL_TIMEx_MasterConfigSynchronization+0x64>
 8002750:	f504 6480 	add.w	r4, r4, #1024	; 0x400
 8002754:	42a3      	cmp	r3, r4
 8002756:	d00f      	beq.n	8002778 <HAL_TIMEx_MasterConfigSynchronization+0x64>
 8002758:	f504 6480 	add.w	r4, r4, #1024	; 0x400
 800275c:	42a3      	cmp	r3, r4
 800275e:	d00b      	beq.n	8002778 <HAL_TIMEx_MasterConfigSynchronization+0x64>
 8002760:	f504 4478 	add.w	r4, r4, #63488	; 0xf800
 8002764:	42a3      	cmp	r3, r4
 8002766:	d007      	beq.n	8002778 <HAL_TIMEx_MasterConfigSynchronization+0x64>
 8002768:	f504 5470 	add.w	r4, r4, #15360	; 0x3c00
 800276c:	42a3      	cmp	r3, r4
 800276e:	d003      	beq.n	8002778 <HAL_TIMEx_MasterConfigSynchronization+0x64>
 8002770:	f5a4 3494 	sub.w	r4, r4, #75776	; 0x12800
 8002774:	42a3      	cmp	r3, r4
 8002776:	d104      	bne.n	8002782 <HAL_TIMEx_MasterConfigSynchronization+0x6e>
 8002778:	6849      	ldr	r1, [r1, #4]
 800277a:	f022 0280 	bic.w	r2, r2, #128	; 0x80
 800277e:	430a      	orrs	r2, r1
 8002780:	609a      	str	r2, [r3, #8]
 8002782:	2301      	movs	r3, #1
 8002784:	f880 303d 	strb.w	r3, [r0, #61]	; 0x3d
 8002788:	2300      	movs	r3, #0
 800278a:	f880 303c 	strb.w	r3, [r0, #60]	; 0x3c
 800278e:	4618      	mov	r0, r3
 8002790:	bd30      	pop	{r4, r5, pc}
 8002792:	bf00      	nop
 8002794:	40010000 	.word	0x40010000

08002798 <HAL_TIMEx_CommutCallback>:
 8002798:	4770      	bx	lr

0800279a <HAL_TIMEx_BreakCallback>:
 800279a:	4770      	bx	lr

0800279c <UART_SetConfig>:
 800279c:	6803      	ldr	r3, [r0, #0]
 800279e:	68c1      	ldr	r1, [r0, #12]
 80027a0:	691a      	ldr	r2, [r3, #16]
 80027a2:	b570      	push	{r4, r5, r6, lr}
 80027a4:	f422 5240 	bic.w	r2, r2, #12288	; 0x3000
 80027a8:	4604      	mov	r4, r0
 80027aa:	430a      	orrs	r2, r1
 80027ac:	611a      	str	r2, [r3, #16]
 80027ae:	6925      	ldr	r5, [r4, #16]
 80027b0:	68a2      	ldr	r2, [r4, #8]
 80027b2:	68d9      	ldr	r1, [r3, #12]
 80027b4:	69c0      	ldr	r0, [r0, #28]
 80027b6:	432a      	orrs	r2, r5
 80027b8:	6965      	ldr	r5, [r4, #20]
 80027ba:	f421 4116 	bic.w	r1, r1, #38400	; 0x9600
 80027be:	432a      	orrs	r2, r5
 80027c0:	f021 010c 	bic.w	r1, r1, #12
 80027c4:	4302      	orrs	r2, r0
 80027c6:	430a      	orrs	r2, r1
 80027c8:	60da      	str	r2, [r3, #12]
 80027ca:	695a      	ldr	r2, [r3, #20]
 80027cc:	69a1      	ldr	r1, [r4, #24]
 80027ce:	f422 7240 	bic.w	r2, r2, #768	; 0x300
 80027d2:	430a      	orrs	r2, r1
 80027d4:	f5b0 4f00 	cmp.w	r0, #32768	; 0x8000
 80027d8:	615a      	str	r2, [r3, #20]
 80027da:	4a26      	ldr	r2, [pc, #152]	; (8002874 <UART_SetConfig+0xd8>)
 80027dc:	d129      	bne.n	8002832 <UART_SetConfig+0x96>
 80027de:	4293      	cmp	r3, r2
 80027e0:	d003      	beq.n	80027ea <UART_SetConfig+0x4e>
 80027e2:	f502 6280 	add.w	r2, r2, #1024	; 0x400
 80027e6:	4293      	cmp	r3, r2
 80027e8:	d120      	bne.n	800282c <UART_SetConfig+0x90>
 80027ea:	f7ff fcbd 	bl	8002168 <HAL_RCC_GetPCLK2Freq>
 80027ee:	6862      	ldr	r2, [r4, #4]
 80027f0:	2600      	movs	r6, #0
 80027f2:	1892      	adds	r2, r2, r2
 80027f4:	f04f 0119 	mov.w	r1, #25
 80027f8:	eb46 0306 	adc.w	r3, r6, r6
 80027fc:	fba0 0101 	umull	r0, r1, r0, r1
 8002800:	f7fd ff02 	bl	8000608 <__aeabi_uldivmod>
 8002804:	2164      	movs	r1, #100	; 0x64
 8002806:	fbb0 f5f1 	udiv	r5, r0, r1
 800280a:	fb01 0315 	mls	r3, r1, r5, r0
 800280e:	00db      	lsls	r3, r3, #3
 8002810:	3332      	adds	r3, #50	; 0x32
 8002812:	fbb3 f3f1 	udiv	r3, r3, r1
 8002816:	f003 0207 	and.w	r2, r3, #7
 800281a:	005b      	lsls	r3, r3, #1
 800281c:	6821      	ldr	r1, [r4, #0]
 800281e:	eb02 1205 	add.w	r2, r2, r5, lsl #4
 8002822:	f403 73f8 	and.w	r3, r3, #496	; 0x1f0
 8002826:	4413      	add	r3, r2
 8002828:	608b      	str	r3, [r1, #8]
 800282a:	bd70      	pop	{r4, r5, r6, pc}
 800282c:	f7ff fc8c 	bl	8002148 <HAL_RCC_GetPCLK1Freq>
 8002830:	e7dd      	b.n	80027ee <UART_SetConfig+0x52>
 8002832:	4293      	cmp	r3, r2
 8002834:	d002      	beq.n	800283c <UART_SetConfig+0xa0>
 8002836:	4a10      	ldr	r2, [pc, #64]	; (8002878 <UART_SetConfig+0xdc>)
 8002838:	4293      	cmp	r3, r2
 800283a:	d117      	bne.n	800286c <UART_SetConfig+0xd0>
 800283c:	f7ff fc94 	bl	8002168 <HAL_RCC_GetPCLK2Freq>
 8002840:	6863      	ldr	r3, [r4, #4]
 8002842:	2119      	movs	r1, #25
 8002844:	009a      	lsls	r2, r3, #2
 8002846:	fba0 0101 	umull	r0, r1, r0, r1
 800284a:	0f9b      	lsrs	r3, r3, #30
 800284c:	f7fd fedc 	bl	8000608 <__aeabi_uldivmod>
 8002850:	2264      	movs	r2, #100	; 0x64
 8002852:	fbb0 f1f2 	udiv	r1, r0, r2
 8002856:	fb02 0311 	mls	r3, r2, r1, r0
 800285a:	6824      	ldr	r4, [r4, #0]
 800285c:	011b      	lsls	r3, r3, #4
 800285e:	3332      	adds	r3, #50	; 0x32
 8002860:	fbb3 f3f2 	udiv	r3, r3, r2
 8002864:	eb03 1301 	add.w	r3, r3, r1, lsl #4
 8002868:	60a3      	str	r3, [r4, #8]
 800286a:	e7de      	b.n	800282a <UART_SetConfig+0x8e>
 800286c:	f7ff fc6c 	bl	8002148 <HAL_RCC_GetPCLK1Freq>
 8002870:	e7e6      	b.n	8002840 <UART_SetConfig+0xa4>
 8002872:	bf00      	nop
 8002874:	40011000 	.word	0x40011000
 8002878:	40011400 	.word	0x40011400

0800287c <UART_WaitOnFlagUntilTimeout.constprop.3>:
 800287c:	b5f8      	push	{r3, r4, r5, r6, r7, lr}
 800287e:	4604      	mov	r4, r0
 8002880:	460e      	mov	r6, r1
 8002882:	4617      	mov	r7, r2
 8002884:	461d      	mov	r5, r3
 8002886:	6821      	ldr	r1, [r4, #0]
 8002888:	680b      	ldr	r3, [r1, #0]
 800288a:	ea36 0303 	bics.w	r3, r6, r3
 800288e:	d101      	bne.n	8002894 <UART_WaitOnFlagUntilTimeout.constprop.3+0x18>
 8002890:	2000      	movs	r0, #0
 8002892:	e014      	b.n	80028be <UART_WaitOnFlagUntilTimeout.constprop.3+0x42>
 8002894:	1c6b      	adds	r3, r5, #1
 8002896:	d0f7      	beq.n	8002888 <UART_WaitOnFlagUntilTimeout.constprop.3+0xc>
 8002898:	b995      	cbnz	r5, 80028c0 <UART_WaitOnFlagUntilTimeout.constprop.3+0x44>
 800289a:	6823      	ldr	r3, [r4, #0]
 800289c:	68da      	ldr	r2, [r3, #12]
 800289e:	f422 72d0 	bic.w	r2, r2, #416	; 0x1a0
 80028a2:	60da      	str	r2, [r3, #12]
 80028a4:	695a      	ldr	r2, [r3, #20]
 80028a6:	f022 0201 	bic.w	r2, r2, #1
 80028aa:	615a      	str	r2, [r3, #20]
 80028ac:	2320      	movs	r3, #32
 80028ae:	f884 3039 	strb.w	r3, [r4, #57]	; 0x39
 80028b2:	f884 303a 	strb.w	r3, [r4, #58]	; 0x3a
 80028b6:	2300      	movs	r3, #0
 80028b8:	f884 3038 	strb.w	r3, [r4, #56]	; 0x38
 80028bc:	2003      	movs	r0, #3
 80028be:	bdf8      	pop	{r3, r4, r5, r6, r7, pc}
 80028c0:	f7fe fd6c 	bl	800139c <HAL_GetTick>
 80028c4:	1bc0      	subs	r0, r0, r7
 80028c6:	4285      	cmp	r5, r0
 80028c8:	d2dd      	bcs.n	8002886 <UART_WaitOnFlagUntilTimeout.constprop.3+0xa>
 80028ca:	e7e6      	b.n	800289a <UART_WaitOnFlagUntilTimeout.constprop.3+0x1e>

080028cc <HAL_UART_Init>:
 80028cc:	b510      	push	{r4, lr}
 80028ce:	4604      	mov	r4, r0
 80028d0:	b340      	cbz	r0, 8002924 <HAL_UART_Init+0x58>
 80028d2:	f890 3039 	ldrb.w	r3, [r0, #57]	; 0x39
 80028d6:	f003 02ff 	and.w	r2, r3, #255	; 0xff
 80028da:	b91b      	cbnz	r3, 80028e4 <HAL_UART_Init+0x18>
 80028dc:	f880 2038 	strb.w	r2, [r0, #56]	; 0x38
 80028e0:	f7fe fcd4 	bl	800128c <HAL_UART_MspInit>
 80028e4:	6822      	ldr	r2, [r4, #0]
 80028e6:	2324      	movs	r3, #36	; 0x24
 80028e8:	f884 3039 	strb.w	r3, [r4, #57]	; 0x39
 80028ec:	68d3      	ldr	r3, [r2, #12]
 80028ee:	f423 5300 	bic.w	r3, r3, #8192	; 0x2000
 80028f2:	60d3      	str	r3, [r2, #12]
 80028f4:	4620      	mov	r0, r4
 80028f6:	f7ff ff51 	bl	800279c <UART_SetConfig>
 80028fa:	6823      	ldr	r3, [r4, #0]
 80028fc:	691a      	ldr	r2, [r3, #16]
 80028fe:	f422 4290 	bic.w	r2, r2, #18432	; 0x4800
 8002902:	611a      	str	r2, [r3, #16]
 8002904:	695a      	ldr	r2, [r3, #20]
 8002906:	f022 022a 	bic.w	r2, r2, #42	; 0x2a
 800290a:	615a      	str	r2, [r3, #20]
 800290c:	68da      	ldr	r2, [r3, #12]
 800290e:	f442 5200 	orr.w	r2, r2, #8192	; 0x2000
 8002912:	60da      	str	r2, [r3, #12]
 8002914:	2000      	movs	r0, #0
 8002916:	2320      	movs	r3, #32
 8002918:	63e0      	str	r0, [r4, #60]	; 0x3c
 800291a:	f884 3039 	strb.w	r3, [r4, #57]	; 0x39
 800291e:	f884 303a 	strb.w	r3, [r4, #58]	; 0x3a
 8002922:	bd10      	pop	{r4, pc}
 8002924:	2001      	movs	r0, #1
 8002926:	e7fc      	b.n	8002922 <HAL_UART_Init+0x56>

08002928 <HAL_UART_Transmit>:
 8002928:	e92d 43f8 	stmdb	sp!, {r3, r4, r5, r6, r7, r8, r9, lr}
 800292c:	461f      	mov	r7, r3
 800292e:	f890 3039 	ldrb.w	r3, [r0, #57]	; 0x39
 8002932:	2b20      	cmp	r3, #32
 8002934:	4604      	mov	r4, r0
 8002936:	460d      	mov	r5, r1
 8002938:	4690      	mov	r8, r2
 800293a:	d14f      	bne.n	80029dc <HAL_UART_Transmit+0xb4>
 800293c:	2900      	cmp	r1, #0
 800293e:	d04b      	beq.n	80029d8 <HAL_UART_Transmit+0xb0>
 8002940:	2a00      	cmp	r2, #0
 8002942:	d049      	beq.n	80029d8 <HAL_UART_Transmit+0xb0>
 8002944:	f890 3038 	ldrb.w	r3, [r0, #56]	; 0x38
 8002948:	2b01      	cmp	r3, #1
 800294a:	d047      	beq.n	80029dc <HAL_UART_Transmit+0xb4>
 800294c:	2301      	movs	r3, #1
 800294e:	f880 3038 	strb.w	r3, [r0, #56]	; 0x38
 8002952:	f04f 0900 	mov.w	r9, #0
 8002956:	2321      	movs	r3, #33	; 0x21
 8002958:	f8c0 903c 	str.w	r9, [r0, #60]	; 0x3c
 800295c:	f880 3039 	strb.w	r3, [r0, #57]	; 0x39
 8002960:	f7fe fd1c 	bl	800139c <HAL_GetTick>
 8002964:	f8a4 8024 	strh.w	r8, [r4, #36]	; 0x24
 8002968:	4606      	mov	r6, r0
 800296a:	f8a4 8026 	strh.w	r8, [r4, #38]	; 0x26
 800296e:	f884 9038 	strb.w	r9, [r4, #56]	; 0x38
 8002972:	8ce3      	ldrh	r3, [r4, #38]	; 0x26
 8002974:	b29b      	uxth	r3, r3
 8002976:	b953      	cbnz	r3, 800298e <HAL_UART_Transmit+0x66>
 8002978:	463b      	mov	r3, r7
 800297a:	4632      	mov	r2, r6
 800297c:	2140      	movs	r1, #64	; 0x40
 800297e:	4620      	mov	r0, r4
 8002980:	f7ff ff7c 	bl	800287c <UART_WaitOnFlagUntilTimeout.constprop.3>
 8002984:	b998      	cbnz	r0, 80029ae <HAL_UART_Transmit+0x86>
 8002986:	2320      	movs	r3, #32
 8002988:	f884 3039 	strb.w	r3, [r4, #57]	; 0x39
 800298c:	e010      	b.n	80029b0 <HAL_UART_Transmit+0x88>
 800298e:	8ce3      	ldrh	r3, [r4, #38]	; 0x26
 8002990:	3b01      	subs	r3, #1
 8002992:	b29b      	uxth	r3, r3
 8002994:	84e3      	strh	r3, [r4, #38]	; 0x26
 8002996:	68a3      	ldr	r3, [r4, #8]
 8002998:	f5b3 5f80 	cmp.w	r3, #4096	; 0x1000
 800299c:	4632      	mov	r2, r6
 800299e:	463b      	mov	r3, r7
 80029a0:	f04f 0180 	mov.w	r1, #128	; 0x80
 80029a4:	4620      	mov	r0, r4
 80029a6:	d10e      	bne.n	80029c6 <HAL_UART_Transmit+0x9e>
 80029a8:	f7ff ff68 	bl	800287c <UART_WaitOnFlagUntilTimeout.constprop.3>
 80029ac:	b110      	cbz	r0, 80029b4 <HAL_UART_Transmit+0x8c>
 80029ae:	2003      	movs	r0, #3
 80029b0:	e8bd 83f8 	ldmia.w	sp!, {r3, r4, r5, r6, r7, r8, r9, pc}
 80029b4:	882b      	ldrh	r3, [r5, #0]
 80029b6:	6822      	ldr	r2, [r4, #0]
 80029b8:	f3c3 0308 	ubfx	r3, r3, #0, #9
 80029bc:	6053      	str	r3, [r2, #4]
 80029be:	6923      	ldr	r3, [r4, #16]
 80029c0:	b943      	cbnz	r3, 80029d4 <HAL_UART_Transmit+0xac>
 80029c2:	3502      	adds	r5, #2
 80029c4:	e7d5      	b.n	8002972 <HAL_UART_Transmit+0x4a>
 80029c6:	f7ff ff59 	bl	800287c <UART_WaitOnFlagUntilTimeout.constprop.3>
 80029ca:	2800      	cmp	r0, #0
 80029cc:	d1ef      	bne.n	80029ae <HAL_UART_Transmit+0x86>
 80029ce:	6823      	ldr	r3, [r4, #0]
 80029d0:	782a      	ldrb	r2, [r5, #0]
 80029d2:	605a      	str	r2, [r3, #4]
 80029d4:	3501      	adds	r5, #1
 80029d6:	e7cc      	b.n	8002972 <HAL_UART_Transmit+0x4a>
 80029d8:	2001      	movs	r0, #1
 80029da:	e7e9      	b.n	80029b0 <HAL_UART_Transmit+0x88>
 80029dc:	2002      	movs	r0, #2
 80029de:	e7e7      	b.n	80029b0 <HAL_UART_Transmit+0x88>

080029e0 <osKernelStart>:
 80029e0:	b508      	push	{r3, lr}
 80029e2:	f000 fa45 	bl	8002e70 <vTaskStartScheduler>
 80029e6:	2000      	movs	r0, #0
 80029e8:	bd08      	pop	{r3, pc}

080029ea <osThreadCreate>:
 80029ea:	b570      	push	{r4, r5, r6, lr}
 80029ec:	4605      	mov	r5, r0
 80029ee:	6946      	ldr	r6, [r0, #20]
 80029f0:	692a      	ldr	r2, [r5, #16]
 80029f2:	f9b5 4008 	ldrsh.w	r4, [r5, #8]
 80029f6:	460b      	mov	r3, r1
 80029f8:	b086      	sub	sp, #24
 80029fa:	e9d0 1000 	ldrd	r1, r0, [r0]
 80029fe:	b176      	cbz	r6, 8002a1e <osThreadCreate+0x34>
 8002a00:	69ad      	ldr	r5, [r5, #24]
 8002a02:	b165      	cbz	r5, 8002a1e <osThreadCreate+0x34>
 8002a04:	2c84      	cmp	r4, #132	; 0x84
 8002a06:	bf14      	ite	ne
 8002a08:	3403      	addne	r4, #3
 8002a0a:	2400      	moveq	r4, #0
 8002a0c:	e9cd 6501 	strd	r6, r5, [sp, #4]
 8002a10:	9400      	str	r4, [sp, #0]
 8002a12:	f000 f9c7 	bl	8002da4 <xTaskCreateStatic>
 8002a16:	9005      	str	r0, [sp, #20]
 8002a18:	9805      	ldr	r0, [sp, #20]
 8002a1a:	b006      	add	sp, #24
 8002a1c:	bd70      	pop	{r4, r5, r6, pc}
 8002a1e:	2c84      	cmp	r4, #132	; 0x84
 8002a20:	bf14      	ite	ne
 8002a22:	3403      	addne	r4, #3
 8002a24:	2400      	moveq	r4, #0
 8002a26:	ad05      	add	r5, sp, #20
 8002a28:	b292      	uxth	r2, r2
 8002a2a:	e9cd 4500 	strd	r4, r5, [sp]
 8002a2e:	f000 f9f1 	bl	8002e14 <xTaskCreate>
 8002a32:	2801      	cmp	r0, #1
 8002a34:	d0f0      	beq.n	8002a18 <osThreadCreate+0x2e>
 8002a36:	2000      	movs	r0, #0
 8002a38:	e7ef      	b.n	8002a1a <osThreadCreate+0x30>

08002a3a <osDelay>:
 8002a3a:	b508      	push	{r3, lr}
 8002a3c:	2800      	cmp	r0, #0
 8002a3e:	bf08      	it	eq
 8002a40:	2001      	moveq	r0, #1
 8002a42:	f000 fb5b 	bl	80030fc <vTaskDelay>
 8002a46:	2000      	movs	r0, #0
 8002a48:	bd08      	pop	{r3, pc}

08002a4a <vListInitialise>:
 8002a4a:	f100 0308 	add.w	r3, r0, #8
 8002a4e:	f04f 32ff 	mov.w	r2, #4294967295
 8002a52:	6043      	str	r3, [r0, #4]
 8002a54:	e9c0 2302 	strd	r2, r3, [r0, #8]
 8002a58:	6103      	str	r3, [r0, #16]
 8002a5a:	2300      	movs	r3, #0
 8002a5c:	6003      	str	r3, [r0, #0]
 8002a5e:	4770      	bx	lr

08002a60 <vListInitialiseItem>:
 8002a60:	2300      	movs	r3, #0
 8002a62:	6103      	str	r3, [r0, #16]
 8002a64:	4770      	bx	lr

08002a66 <vListInsertEnd>:
 8002a66:	6843      	ldr	r3, [r0, #4]
 8002a68:	604b      	str	r3, [r1, #4]
 8002a6a:	689a      	ldr	r2, [r3, #8]
 8002a6c:	608a      	str	r2, [r1, #8]
 8002a6e:	689a      	ldr	r2, [r3, #8]
 8002a70:	6051      	str	r1, [r2, #4]
 8002a72:	6099      	str	r1, [r3, #8]
 8002a74:	6803      	ldr	r3, [r0, #0]
 8002a76:	6108      	str	r0, [r1, #16]
 8002a78:	3301      	adds	r3, #1
 8002a7a:	6003      	str	r3, [r0, #0]
 8002a7c:	4770      	bx	lr

08002a7e <vListInsert>:
 8002a7e:	680a      	ldr	r2, [r1, #0]
 8002a80:	1c53      	adds	r3, r2, #1
 8002a82:	b530      	push	{r4, r5, lr}
 8002a84:	d10a      	bne.n	8002a9c <vListInsert+0x1e>
 8002a86:	6903      	ldr	r3, [r0, #16]
 8002a88:	685a      	ldr	r2, [r3, #4]
 8002a8a:	604a      	str	r2, [r1, #4]
 8002a8c:	6091      	str	r1, [r2, #8]
 8002a8e:	608b      	str	r3, [r1, #8]
 8002a90:	6059      	str	r1, [r3, #4]
 8002a92:	6803      	ldr	r3, [r0, #0]
 8002a94:	6108      	str	r0, [r1, #16]
 8002a96:	3301      	adds	r3, #1
 8002a98:	6003      	str	r3, [r0, #0]
 8002a9a:	bd30      	pop	{r4, r5, pc}
 8002a9c:	f100 0308 	add.w	r3, r0, #8
 8002aa0:	685c      	ldr	r4, [r3, #4]
 8002aa2:	6825      	ldr	r5, [r4, #0]
 8002aa4:	4295      	cmp	r5, r2
 8002aa6:	d8ef      	bhi.n	8002a88 <vListInsert+0xa>
 8002aa8:	4623      	mov	r3, r4
 8002aaa:	e7f9      	b.n	8002aa0 <vListInsert+0x22>

08002aac <uxListRemove>:
 8002aac:	e9d0 1201 	ldrd	r1, r2, [r0, #4]
 8002ab0:	6903      	ldr	r3, [r0, #16]
 8002ab2:	608a      	str	r2, [r1, #8]
 8002ab4:	6882      	ldr	r2, [r0, #8]
 8002ab6:	6051      	str	r1, [r2, #4]
 8002ab8:	6859      	ldr	r1, [r3, #4]
 8002aba:	4281      	cmp	r1, r0
 8002abc:	bf08      	it	eq
 8002abe:	605a      	streq	r2, [r3, #4]
 8002ac0:	2200      	movs	r2, #0
 8002ac2:	6102      	str	r2, [r0, #16]
 8002ac4:	681a      	ldr	r2, [r3, #0]
 8002ac6:	3a01      	subs	r2, #1
 8002ac8:	601a      	str	r2, [r3, #0]
 8002aca:	6818      	ldr	r0, [r3, #0]
 8002acc:	4770      	bx	lr
	...

08002ad0 <prvAddNewTaskToReadyList>:
 8002ad0:	e92d 41f0 	stmdb	sp!, {r4, r5, r6, r7, r8, lr}
 8002ad4:	4606      	mov	r6, r0
 8002ad6:	f000 fbd5 	bl	8003284 <vPortEnterCritical>
 8002ada:	4b2e      	ldr	r3, [pc, #184]	; (8002b94 <prvAddNewTaskToReadyList+0xc4>)
 8002adc:	4c2e      	ldr	r4, [pc, #184]	; (8002b98 <prvAddNewTaskToReadyList+0xc8>)
 8002ade:	681a      	ldr	r2, [r3, #0]
 8002ae0:	4f2e      	ldr	r7, [pc, #184]	; (8002b9c <prvAddNewTaskToReadyList+0xcc>)
 8002ae2:	3201      	adds	r2, #1
 8002ae4:	601a      	str	r2, [r3, #0]
 8002ae6:	6825      	ldr	r5, [r4, #0]
 8002ae8:	2d00      	cmp	r5, #0
 8002aea:	d148      	bne.n	8002b7e <prvAddNewTaskToReadyList+0xae>
 8002aec:	6026      	str	r6, [r4, #0]
 8002aee:	681b      	ldr	r3, [r3, #0]
 8002af0:	2b01      	cmp	r3, #1
 8002af2:	d11f      	bne.n	8002b34 <prvAddNewTaskToReadyList+0x64>
 8002af4:	f04f 0814 	mov.w	r8, #20
 8002af8:	fb08 7005 	mla	r0, r8, r5, r7
 8002afc:	3501      	adds	r5, #1
 8002afe:	f7ff ffa4 	bl	8002a4a <vListInitialise>
 8002b02:	2d07      	cmp	r5, #7
 8002b04:	d1f8      	bne.n	8002af8 <prvAddNewTaskToReadyList+0x28>
 8002b06:	f8df 80c0 	ldr.w	r8, [pc, #192]	; 8002bc8 <prvAddNewTaskToReadyList+0xf8>
 8002b0a:	4d25      	ldr	r5, [pc, #148]	; (8002ba0 <prvAddNewTaskToReadyList+0xd0>)
 8002b0c:	4640      	mov	r0, r8
 8002b0e:	f7ff ff9c 	bl	8002a4a <vListInitialise>
 8002b12:	4628      	mov	r0, r5
 8002b14:	f7ff ff99 	bl	8002a4a <vListInitialise>
 8002b18:	4822      	ldr	r0, [pc, #136]	; (8002ba4 <prvAddNewTaskToReadyList+0xd4>)
 8002b1a:	f7ff ff96 	bl	8002a4a <vListInitialise>
 8002b1e:	4822      	ldr	r0, [pc, #136]	; (8002ba8 <prvAddNewTaskToReadyList+0xd8>)
 8002b20:	f7ff ff93 	bl	8002a4a <vListInitialise>
 8002b24:	4821      	ldr	r0, [pc, #132]	; (8002bac <prvAddNewTaskToReadyList+0xdc>)
 8002b26:	f7ff ff90 	bl	8002a4a <vListInitialise>
 8002b2a:	4b21      	ldr	r3, [pc, #132]	; (8002bb0 <prvAddNewTaskToReadyList+0xe0>)
 8002b2c:	f8c3 8000 	str.w	r8, [r3]
 8002b30:	4b20      	ldr	r3, [pc, #128]	; (8002bb4 <prvAddNewTaskToReadyList+0xe4>)
 8002b32:	601d      	str	r5, [r3, #0]
 8002b34:	4a20      	ldr	r2, [pc, #128]	; (8002bb8 <prvAddNewTaskToReadyList+0xe8>)
 8002b36:	4921      	ldr	r1, [pc, #132]	; (8002bbc <prvAddNewTaskToReadyList+0xec>)
 8002b38:	6813      	ldr	r3, [r2, #0]
 8002b3a:	6808      	ldr	r0, [r1, #0]
 8002b3c:	3301      	adds	r3, #1
 8002b3e:	6013      	str	r3, [r2, #0]
 8002b40:	6af2      	ldr	r2, [r6, #44]	; 0x2c
 8002b42:	2301      	movs	r3, #1
 8002b44:	4093      	lsls	r3, r2
 8002b46:	4303      	orrs	r3, r0
 8002b48:	2014      	movs	r0, #20
 8002b4a:	600b      	str	r3, [r1, #0]
 8002b4c:	fb00 7002 	mla	r0, r0, r2, r7
 8002b50:	1d31      	adds	r1, r6, #4
 8002b52:	f7ff ff88 	bl	8002a66 <vListInsertEnd>
 8002b56:	f000 fbb7 	bl	80032c8 <vPortExitCritical>
 8002b5a:	4b19      	ldr	r3, [pc, #100]	; (8002bc0 <prvAddNewTaskToReadyList+0xf0>)
 8002b5c:	681b      	ldr	r3, [r3, #0]
 8002b5e:	b163      	cbz	r3, 8002b7a <prvAddNewTaskToReadyList+0xaa>
 8002b60:	6823      	ldr	r3, [r4, #0]
 8002b62:	6ada      	ldr	r2, [r3, #44]	; 0x2c
 8002b64:	6af3      	ldr	r3, [r6, #44]	; 0x2c
 8002b66:	429a      	cmp	r2, r3
 8002b68:	d207      	bcs.n	8002b7a <prvAddNewTaskToReadyList+0xaa>
 8002b6a:	4b16      	ldr	r3, [pc, #88]	; (8002bc4 <prvAddNewTaskToReadyList+0xf4>)
 8002b6c:	f04f 5280 	mov.w	r2, #268435456	; 0x10000000
 8002b70:	601a      	str	r2, [r3, #0]
 8002b72:	f3bf 8f4f 	dsb	sy
 8002b76:	f3bf 8f6f 	isb	sy
 8002b7a:	e8bd 81f0 	ldmia.w	sp!, {r4, r5, r6, r7, r8, pc}
 8002b7e:	4b10      	ldr	r3, [pc, #64]	; (8002bc0 <prvAddNewTaskToReadyList+0xf0>)
 8002b80:	681b      	ldr	r3, [r3, #0]
 8002b82:	2b00      	cmp	r3, #0
 8002b84:	d1d6      	bne.n	8002b34 <prvAddNewTaskToReadyList+0x64>
 8002b86:	6823      	ldr	r3, [r4, #0]
 8002b88:	6ada      	ldr	r2, [r3, #44]	; 0x2c
 8002b8a:	6af3      	ldr	r3, [r6, #44]	; 0x2c
 8002b8c:	429a      	cmp	r2, r3
 8002b8e:	bf98      	it	ls
 8002b90:	6026      	strls	r6, [r4, #0]
 8002b92:	e7cf      	b.n	8002b34 <prvAddNewTaskToReadyList+0x64>
 8002b94:	200003a0 	.word	0x200003a0
 8002b98:	20000308 	.word	0x20000308
 8002b9c:	20000314 	.word	0x20000314
 8002ba0:	200003cc 	.word	0x200003cc
 8002ba4:	200003e8 	.word	0x200003e8
 8002ba8:	20000414 	.word	0x20000414
 8002bac:	20000400 	.word	0x20000400
 8002bb0:	2000030c 	.word	0x2000030c
 8002bb4:	20000310 	.word	0x20000310
 8002bb8:	200003b0 	.word	0x200003b0
 8002bbc:	200003b4 	.word	0x200003b4
 8002bc0:	200003fc 	.word	0x200003fc
 8002bc4:	e000ed04 	.word	0xe000ed04
 8002bc8:	200003b8 	.word	0x200003b8

08002bcc <prvDeleteTCB>:
 8002bcc:	b510      	push	{r4, lr}
 8002bce:	f890 3051 	ldrb.w	r3, [r0, #81]	; 0x51
 8002bd2:	4604      	mov	r4, r0
 8002bd4:	b93b      	cbnz	r3, 8002be6 <prvDeleteTCB+0x1a>
 8002bd6:	6b00      	ldr	r0, [r0, #48]	; 0x30
 8002bd8:	f000 fd22 	bl	8003620 <vPortFree>
 8002bdc:	4620      	mov	r0, r4
 8002bde:	e8bd 4010 	ldmia.w	sp!, {r4, lr}
 8002be2:	f000 bd1d 	b.w	8003620 <vPortFree>
 8002be6:	2b01      	cmp	r3, #1
 8002be8:	d0f9      	beq.n	8002bde <prvDeleteTCB+0x12>
 8002bea:	2b02      	cmp	r3, #2
 8002bec:	d008      	beq.n	8002c00 <prvDeleteTCB+0x34>
 8002bee:	f04f 0350 	mov.w	r3, #80	; 0x50
 8002bf2:	f383 8811 	msr	BASEPRI, r3
 8002bf6:	f3bf 8f6f 	isb	sy
 8002bfa:	f3bf 8f4f 	dsb	sy
 8002bfe:	e7fe      	b.n	8002bfe <prvDeleteTCB+0x32>
 8002c00:	bd10      	pop	{r4, pc}
	...

08002c04 <prvIdleTask>:
 8002c04:	b580      	push	{r7, lr}
 8002c06:	f8df 805c 	ldr.w	r8, [pc, #92]	; 8002c64 <prvIdleTask+0x60>
 8002c0a:	4f12      	ldr	r7, [pc, #72]	; (8002c54 <prvIdleTask+0x50>)
 8002c0c:	4c12      	ldr	r4, [pc, #72]	; (8002c58 <prvIdleTask+0x54>)
 8002c0e:	4d13      	ldr	r5, [pc, #76]	; (8002c5c <prvIdleTask+0x58>)
 8002c10:	6823      	ldr	r3, [r4, #0]
 8002c12:	b963      	cbnz	r3, 8002c2e <prvIdleTask+0x2a>
 8002c14:	4b12      	ldr	r3, [pc, #72]	; (8002c60 <prvIdleTask+0x5c>)
 8002c16:	681b      	ldr	r3, [r3, #0]
 8002c18:	2b01      	cmp	r3, #1
 8002c1a:	d9f8      	bls.n	8002c0e <prvIdleTask+0xa>
 8002c1c:	f04f 5380 	mov.w	r3, #268435456	; 0x10000000
 8002c20:	f8c8 3000 	str.w	r3, [r8]
 8002c24:	f3bf 8f4f 	dsb	sy
 8002c28:	f3bf 8f6f 	isb	sy
 8002c2c:	e7ee      	b.n	8002c0c <prvIdleTask+0x8>
 8002c2e:	f000 fb29 	bl	8003284 <vPortEnterCritical>
 8002c32:	68fb      	ldr	r3, [r7, #12]
 8002c34:	68de      	ldr	r6, [r3, #12]
 8002c36:	1d30      	adds	r0, r6, #4
 8002c38:	f7ff ff38 	bl	8002aac <uxListRemove>
 8002c3c:	682b      	ldr	r3, [r5, #0]
 8002c3e:	3b01      	subs	r3, #1
 8002c40:	602b      	str	r3, [r5, #0]
 8002c42:	6823      	ldr	r3, [r4, #0]
 8002c44:	3b01      	subs	r3, #1
 8002c46:	6023      	str	r3, [r4, #0]
 8002c48:	f000 fb3e 	bl	80032c8 <vPortExitCritical>
 8002c4c:	4630      	mov	r0, r6
 8002c4e:	f7ff ffbd 	bl	8002bcc <prvDeleteTCB>
 8002c52:	e7dd      	b.n	8002c10 <prvIdleTask+0xc>
 8002c54:	20000414 	.word	0x20000414
 8002c58:	200003a4 	.word	0x200003a4
 8002c5c:	200003a0 	.word	0x200003a0
 8002c60:	20000314 	.word	0x20000314
 8002c64:	e000ed04 	.word	0xe000ed04

08002c68 <prvResetNextTaskUnblockTime>:
 8002c68:	4a06      	ldr	r2, [pc, #24]	; (8002c84 <prvResetNextTaskUnblockTime+0x1c>)
 8002c6a:	6813      	ldr	r3, [r2, #0]
 8002c6c:	6819      	ldr	r1, [r3, #0]
 8002c6e:	4b06      	ldr	r3, [pc, #24]	; (8002c88 <prvResetNextTaskUnblockTime+0x20>)
 8002c70:	b919      	cbnz	r1, 8002c7a <prvResetNextTaskUnblockTime+0x12>
 8002c72:	f04f 32ff 	mov.w	r2, #4294967295
 8002c76:	601a      	str	r2, [r3, #0]
 8002c78:	4770      	bx	lr
 8002c7a:	6812      	ldr	r2, [r2, #0]
 8002c7c:	68d2      	ldr	r2, [r2, #12]
 8002c7e:	68d2      	ldr	r2, [r2, #12]
 8002c80:	6852      	ldr	r2, [r2, #4]
 8002c82:	e7f8      	b.n	8002c76 <prvResetNextTaskUnblockTime+0xe>
 8002c84:	2000030c 	.word	0x2000030c
 8002c88:	200003e0 	.word	0x200003e0

08002c8c <prvInitialiseNewTask.isra.2>:
 8002c8c:	e92d 47f0 	stmdb	sp!, {r4, r5, r6, r7, r8, r9, sl, lr}
 8002c90:	e9dd 7409 	ldrd	r7, r4, [sp, #36]	; 0x24
 8002c94:	f102 4280 	add.w	r2, r2, #1073741824	; 0x40000000
 8002c98:	6b26      	ldr	r6, [r4, #48]	; 0x30
 8002c9a:	3a01      	subs	r2, #1
 8002c9c:	eb06 0682 	add.w	r6, r6, r2, lsl #2
 8002ca0:	4680      	mov	r8, r0
 8002ca2:	4699      	mov	r9, r3
 8002ca4:	f026 0607 	bic.w	r6, r6, #7
 8002ca8:	b391      	cbz	r1, 8002d10 <prvInitialiseNewTask.isra.2+0x84>
 8002caa:	1e4b      	subs	r3, r1, #1
 8002cac:	f104 0234 	add.w	r2, r4, #52	; 0x34
 8002cb0:	310f      	adds	r1, #15
 8002cb2:	f813 0f01 	ldrb.w	r0, [r3, #1]!
 8002cb6:	f802 0b01 	strb.w	r0, [r2], #1
 8002cba:	7818      	ldrb	r0, [r3, #0]
 8002cbc:	b108      	cbz	r0, 8002cc2 <prvInitialiseNewTask.isra.2+0x36>
 8002cbe:	428b      	cmp	r3, r1
 8002cc0:	d1f7      	bne.n	8002cb2 <prvInitialiseNewTask.isra.2+0x26>
 8002cc2:	2300      	movs	r3, #0
 8002cc4:	f884 3043 	strb.w	r3, [r4, #67]	; 0x43
 8002cc8:	9d08      	ldr	r5, [sp, #32]
 8002cca:	2d06      	cmp	r5, #6
 8002ccc:	bf28      	it	cs
 8002cce:	2506      	movcs	r5, #6
 8002cd0:	f04f 0a00 	mov.w	sl, #0
 8002cd4:	62e5      	str	r5, [r4, #44]	; 0x2c
 8002cd6:	6465      	str	r5, [r4, #68]	; 0x44
 8002cd8:	1d20      	adds	r0, r4, #4
 8002cda:	f8c4 a048 	str.w	sl, [r4, #72]	; 0x48
 8002cde:	f7ff febf 	bl	8002a60 <vListInitialiseItem>
 8002ce2:	f1c5 0507 	rsb	r5, r5, #7
 8002ce6:	f104 0018 	add.w	r0, r4, #24
 8002cea:	f7ff feb9 	bl	8002a60 <vListInitialiseItem>
 8002cee:	f8c4 a04c 	str.w	sl, [r4, #76]	; 0x4c
 8002cf2:	6124      	str	r4, [r4, #16]
 8002cf4:	61a5      	str	r5, [r4, #24]
 8002cf6:	6264      	str	r4, [r4, #36]	; 0x24
 8002cf8:	f884 a050 	strb.w	sl, [r4, #80]	; 0x50
 8002cfc:	464a      	mov	r2, r9
 8002cfe:	4641      	mov	r1, r8
 8002d00:	4630      	mov	r0, r6
 8002d02:	f000 fa97 	bl	8003234 <pxPortInitialiseStack>
 8002d06:	6020      	str	r0, [r4, #0]
 8002d08:	b107      	cbz	r7, 8002d0c <prvInitialiseNewTask.isra.2+0x80>
 8002d0a:	603c      	str	r4, [r7, #0]
 8002d0c:	e8bd 87f0 	ldmia.w	sp!, {r4, r5, r6, r7, r8, r9, sl, pc}
 8002d10:	f884 1034 	strb.w	r1, [r4, #52]	; 0x34
 8002d14:	e7d8      	b.n	8002cc8 <prvInitialiseNewTask.isra.2+0x3c>
	...

08002d18 <prvAddCurrentTaskToDelayedList>:
 8002d18:	b5f8      	push	{r3, r4, r5, r6, r7, lr}
 8002d1a:	4b1b      	ldr	r3, [pc, #108]	; (8002d88 <prvAddCurrentTaskToDelayedList+0x70>)
 8002d1c:	4e1b      	ldr	r6, [pc, #108]	; (8002d8c <prvAddCurrentTaskToDelayedList+0x74>)
 8002d1e:	681c      	ldr	r4, [r3, #0]
 8002d20:	4605      	mov	r5, r0
 8002d22:	6830      	ldr	r0, [r6, #0]
 8002d24:	3004      	adds	r0, #4
 8002d26:	460f      	mov	r7, r1
 8002d28:	f7ff fec0 	bl	8002aac <uxListRemove>
 8002d2c:	4633      	mov	r3, r6
 8002d2e:	b940      	cbnz	r0, 8002d42 <prvAddCurrentTaskToDelayedList+0x2a>
 8002d30:	6831      	ldr	r1, [r6, #0]
 8002d32:	4e17      	ldr	r6, [pc, #92]	; (8002d90 <prvAddCurrentTaskToDelayedList+0x78>)
 8002d34:	6ac9      	ldr	r1, [r1, #44]	; 0x2c
 8002d36:	6832      	ldr	r2, [r6, #0]
 8002d38:	2001      	movs	r0, #1
 8002d3a:	4088      	lsls	r0, r1
 8002d3c:	ea22 0200 	bic.w	r2, r2, r0
 8002d40:	6032      	str	r2, [r6, #0]
 8002d42:	1c6a      	adds	r2, r5, #1
 8002d44:	d107      	bne.n	8002d56 <prvAddCurrentTaskToDelayedList+0x3e>
 8002d46:	b137      	cbz	r7, 8002d56 <prvAddCurrentTaskToDelayedList+0x3e>
 8002d48:	6819      	ldr	r1, [r3, #0]
 8002d4a:	4812      	ldr	r0, [pc, #72]	; (8002d94 <prvAddCurrentTaskToDelayedList+0x7c>)
 8002d4c:	3104      	adds	r1, #4
 8002d4e:	e8bd 40f8 	ldmia.w	sp!, {r3, r4, r5, r6, r7, lr}
 8002d52:	f7ff be88 	b.w	8002a66 <vListInsertEnd>
 8002d56:	681a      	ldr	r2, [r3, #0]
 8002d58:	1964      	adds	r4, r4, r5
 8002d5a:	6054      	str	r4, [r2, #4]
 8002d5c:	d307      	bcc.n	8002d6e <prvAddCurrentTaskToDelayedList+0x56>
 8002d5e:	4a0e      	ldr	r2, [pc, #56]	; (8002d98 <prvAddCurrentTaskToDelayedList+0x80>)
 8002d60:	6810      	ldr	r0, [r2, #0]
 8002d62:	6819      	ldr	r1, [r3, #0]
 8002d64:	e8bd 40f8 	ldmia.w	sp!, {r3, r4, r5, r6, r7, lr}
 8002d68:	3104      	adds	r1, #4
 8002d6a:	f7ff be88 	b.w	8002a7e <vListInsert>
 8002d6e:	4a0b      	ldr	r2, [pc, #44]	; (8002d9c <prvAddCurrentTaskToDelayedList+0x84>)
 8002d70:	6810      	ldr	r0, [r2, #0]
 8002d72:	6819      	ldr	r1, [r3, #0]
 8002d74:	3104      	adds	r1, #4
 8002d76:	f7ff fe82 	bl	8002a7e <vListInsert>
 8002d7a:	4b09      	ldr	r3, [pc, #36]	; (8002da0 <prvAddCurrentTaskToDelayedList+0x88>)
 8002d7c:	681a      	ldr	r2, [r3, #0]
 8002d7e:	42a2      	cmp	r2, r4
 8002d80:	bf88      	it	hi
 8002d82:	601c      	strhi	r4, [r3, #0]
 8002d84:	bdf8      	pop	{r3, r4, r5, r6, r7, pc}
 8002d86:	bf00      	nop
 8002d88:	20000428 	.word	0x20000428
 8002d8c:	20000308 	.word	0x20000308
 8002d90:	200003b4 	.word	0x200003b4
 8002d94:	20000400 	.word	0x20000400
 8002d98:	20000310 	.word	0x20000310
 8002d9c:	2000030c 	.word	0x2000030c
 8002da0:	200003e0 	.word	0x200003e0

08002da4 <xTaskCreateStatic>:
 8002da4:	b570      	push	{r4, r5, r6, lr}
 8002da6:	b086      	sub	sp, #24
 8002da8:	e9dd 540b 	ldrd	r5, r4, [sp, #44]	; 0x2c
 8002dac:	b945      	cbnz	r5, 8002dc0 <xTaskCreateStatic+0x1c>
 8002dae:	f04f 0350 	mov.w	r3, #80	; 0x50
 8002db2:	f383 8811 	msr	BASEPRI, r3
 8002db6:	f3bf 8f6f 	isb	sy
 8002dba:	f3bf 8f4f 	dsb	sy
 8002dbe:	e7fe      	b.n	8002dbe <xTaskCreateStatic+0x1a>
 8002dc0:	b944      	cbnz	r4, 8002dd4 <xTaskCreateStatic+0x30>
 8002dc2:	f04f 0350 	mov.w	r3, #80	; 0x50
 8002dc6:	f383 8811 	msr	BASEPRI, r3
 8002dca:	f3bf 8f6f 	isb	sy
 8002dce:	f3bf 8f4f 	dsb	sy
 8002dd2:	e7fe      	b.n	8002dd2 <xTaskCreateStatic+0x2e>
 8002dd4:	2654      	movs	r6, #84	; 0x54
 8002dd6:	9605      	str	r6, [sp, #20]
 8002dd8:	9e05      	ldr	r6, [sp, #20]
 8002dda:	2e54      	cmp	r6, #84	; 0x54
 8002ddc:	d008      	beq.n	8002df0 <xTaskCreateStatic+0x4c>
 8002dde:	f04f 0350 	mov.w	r3, #80	; 0x50
 8002de2:	f383 8811 	msr	BASEPRI, r3
 8002de6:	f3bf 8f6f 	isb	sy
 8002dea:	f3bf 8f4f 	dsb	sy
 8002dee:	e7fe      	b.n	8002dee <xTaskCreateStatic+0x4a>
 8002df0:	6325      	str	r5, [r4, #48]	; 0x30
 8002df2:	2502      	movs	r5, #2
 8002df4:	f884 5051 	strb.w	r5, [r4, #81]	; 0x51
 8002df8:	ad04      	add	r5, sp, #16
 8002dfa:	9501      	str	r5, [sp, #4]
 8002dfc:	9d0a      	ldr	r5, [sp, #40]	; 0x28
 8002dfe:	9402      	str	r4, [sp, #8]
 8002e00:	9500      	str	r5, [sp, #0]
 8002e02:	9e05      	ldr	r6, [sp, #20]
 8002e04:	f7ff ff42 	bl	8002c8c <prvInitialiseNewTask.isra.2>
 8002e08:	4620      	mov	r0, r4
 8002e0a:	f7ff fe61 	bl	8002ad0 <prvAddNewTaskToReadyList>
 8002e0e:	9804      	ldr	r0, [sp, #16]
 8002e10:	b006      	add	sp, #24
 8002e12:	bd70      	pop	{r4, r5, r6, pc}

08002e14 <xTaskCreate>:
 8002e14:	e92d 43f0 	stmdb	sp!, {r4, r5, r6, r7, r8, r9, lr}
 8002e18:	4607      	mov	r7, r0
 8002e1a:	b085      	sub	sp, #20
 8002e1c:	0090      	lsls	r0, r2, #2
 8002e1e:	4688      	mov	r8, r1
 8002e20:	4616      	mov	r6, r2
 8002e22:	4699      	mov	r9, r3
 8002e24:	f000 fb70 	bl	8003508 <pvPortMalloc>
 8002e28:	4605      	mov	r5, r0
 8002e2a:	b1e8      	cbz	r0, 8002e68 <xTaskCreate+0x54>
 8002e2c:	2054      	movs	r0, #84	; 0x54
 8002e2e:	f000 fb6b 	bl	8003508 <pvPortMalloc>
 8002e32:	4604      	mov	r4, r0
 8002e34:	b1a8      	cbz	r0, 8002e62 <xTaskCreate+0x4e>
 8002e36:	2300      	movs	r3, #0
 8002e38:	f880 3051 	strb.w	r3, [r0, #81]	; 0x51
 8002e3c:	9b0d      	ldr	r3, [sp, #52]	; 0x34
 8002e3e:	6305      	str	r5, [r0, #48]	; 0x30
 8002e40:	9301      	str	r3, [sp, #4]
 8002e42:	9b0c      	ldr	r3, [sp, #48]	; 0x30
 8002e44:	9002      	str	r0, [sp, #8]
 8002e46:	9300      	str	r3, [sp, #0]
 8002e48:	4632      	mov	r2, r6
 8002e4a:	464b      	mov	r3, r9
 8002e4c:	4641      	mov	r1, r8
 8002e4e:	4638      	mov	r0, r7
 8002e50:	f7ff ff1c 	bl	8002c8c <prvInitialiseNewTask.isra.2>
 8002e54:	4620      	mov	r0, r4
 8002e56:	f7ff fe3b 	bl	8002ad0 <prvAddNewTaskToReadyList>
 8002e5a:	2001      	movs	r0, #1
 8002e5c:	b005      	add	sp, #20
 8002e5e:	e8bd 83f0 	ldmia.w	sp!, {r4, r5, r6, r7, r8, r9, pc}
 8002e62:	4628      	mov	r0, r5
 8002e64:	f000 fbdc 	bl	8003620 <vPortFree>
 8002e68:	f04f 30ff 	mov.w	r0, #4294967295
 8002e6c:	e7f6      	b.n	8002e5c <xTaskCreate+0x48>
	...

08002e70 <vTaskStartScheduler>:
 8002e70:	b510      	push	{r4, lr}
 8002e72:	b088      	sub	sp, #32
 8002e74:	2400      	movs	r4, #0
 8002e76:	aa07      	add	r2, sp, #28
 8002e78:	a906      	add	r1, sp, #24
 8002e7a:	a805      	add	r0, sp, #20
 8002e7c:	e9cd 4405 	strd	r4, r4, [sp, #20]
 8002e80:	f7fd febc 	bl	8000bfc <vApplicationGetIdleTaskMemory>
 8002e84:	9b05      	ldr	r3, [sp, #20]
 8002e86:	9302      	str	r3, [sp, #8]
 8002e88:	9b06      	ldr	r3, [sp, #24]
 8002e8a:	9a07      	ldr	r2, [sp, #28]
 8002e8c:	490e      	ldr	r1, [pc, #56]	; (8002ec8 <vTaskStartScheduler+0x58>)
 8002e8e:	480f      	ldr	r0, [pc, #60]	; (8002ecc <vTaskStartScheduler+0x5c>)
 8002e90:	e9cd 4300 	strd	r4, r3, [sp]
 8002e94:	4623      	mov	r3, r4
 8002e96:	f7ff ff85 	bl	8002da4 <xTaskCreateStatic>
 8002e9a:	b190      	cbz	r0, 8002ec2 <vTaskStartScheduler+0x52>
 8002e9c:	f04f 0350 	mov.w	r3, #80	; 0x50
 8002ea0:	f383 8811 	msr	BASEPRI, r3
 8002ea4:	f3bf 8f6f 	isb	sy
 8002ea8:	f3bf 8f4f 	dsb	sy
 8002eac:	4b08      	ldr	r3, [pc, #32]	; (8002ed0 <vTaskStartScheduler+0x60>)
 8002eae:	f04f 32ff 	mov.w	r2, #4294967295
 8002eb2:	601a      	str	r2, [r3, #0]
 8002eb4:	4b07      	ldr	r3, [pc, #28]	; (8002ed4 <vTaskStartScheduler+0x64>)
 8002eb6:	2201      	movs	r2, #1
 8002eb8:	601a      	str	r2, [r3, #0]
 8002eba:	4b07      	ldr	r3, [pc, #28]	; (8002ed8 <vTaskStartScheduler+0x68>)
 8002ebc:	601c      	str	r4, [r3, #0]
 8002ebe:	f000 fa79 	bl	80033b4 <xPortStartScheduler>
 8002ec2:	b008      	add	sp, #32
 8002ec4:	bd10      	pop	{r4, pc}
 8002ec6:	bf00      	nop
 8002ec8:	08004723 	.word	0x08004723
 8002ecc:	08002c05 	.word	0x08002c05
 8002ed0:	200003e0 	.word	0x200003e0
 8002ed4:	200003fc 	.word	0x200003fc
 8002ed8:	20000428 	.word	0x20000428

08002edc <vTaskSuspendAll>:
 8002edc:	4a02      	ldr	r2, [pc, #8]	; (8002ee8 <vTaskSuspendAll+0xc>)
 8002ede:	6813      	ldr	r3, [r2, #0]
 8002ee0:	3301      	adds	r3, #1
 8002ee2:	6013      	str	r3, [r2, #0]
 8002ee4:	4770      	bx	lr
 8002ee6:	bf00      	nop
 8002ee8:	200003ac 	.word	0x200003ac

08002eec <xTaskIncrementTick>:
 8002eec:	e92d 4ff8 	stmdb	sp!, {r3, r4, r5, r6, r7, r8, r9, sl, fp, lr}
 8002ef0:	4b3c      	ldr	r3, [pc, #240]	; (8002fe4 <xTaskIncrementTick+0xf8>)
 8002ef2:	681b      	ldr	r3, [r3, #0]
 8002ef4:	2b00      	cmp	r3, #0
 8002ef6:	d16e      	bne.n	8002fd6 <xTaskIncrementTick+0xea>
 8002ef8:	4b3b      	ldr	r3, [pc, #236]	; (8002fe8 <xTaskIncrementTick+0xfc>)
 8002efa:	681c      	ldr	r4, [r3, #0]
 8002efc:	3401      	adds	r4, #1
 8002efe:	601c      	str	r4, [r3, #0]
 8002f00:	b9bc      	cbnz	r4, 8002f32 <xTaskIncrementTick+0x46>
 8002f02:	4b3a      	ldr	r3, [pc, #232]	; (8002fec <xTaskIncrementTick+0x100>)
 8002f04:	681a      	ldr	r2, [r3, #0]
 8002f06:	6812      	ldr	r2, [r2, #0]
 8002f08:	b142      	cbz	r2, 8002f1c <xTaskIncrementTick+0x30>
 8002f0a:	f04f 0350 	mov.w	r3, #80	; 0x50
 8002f0e:	f383 8811 	msr	BASEPRI, r3
 8002f12:	f3bf 8f6f 	isb	sy
 8002f16:	f3bf 8f4f 	dsb	sy
 8002f1a:	e7fe      	b.n	8002f1a <xTaskIncrementTick+0x2e>
 8002f1c:	4a34      	ldr	r2, [pc, #208]	; (8002ff0 <xTaskIncrementTick+0x104>)
 8002f1e:	6819      	ldr	r1, [r3, #0]
 8002f20:	6810      	ldr	r0, [r2, #0]
 8002f22:	6018      	str	r0, [r3, #0]
 8002f24:	6011      	str	r1, [r2, #0]
 8002f26:	4a33      	ldr	r2, [pc, #204]	; (8002ff4 <xTaskIncrementTick+0x108>)
 8002f28:	6813      	ldr	r3, [r2, #0]
 8002f2a:	3301      	adds	r3, #1
 8002f2c:	6013      	str	r3, [r2, #0]
 8002f2e:	f7ff fe9b 	bl	8002c68 <prvResetNextTaskUnblockTime>
 8002f32:	4d31      	ldr	r5, [pc, #196]	; (8002ff8 <xTaskIncrementTick+0x10c>)
 8002f34:	4f31      	ldr	r7, [pc, #196]	; (8002ffc <xTaskIncrementTick+0x110>)
 8002f36:	682b      	ldr	r3, [r5, #0]
 8002f38:	42a3      	cmp	r3, r4
 8002f3a:	f04f 0b00 	mov.w	fp, #0
 8002f3e:	d911      	bls.n	8002f64 <xTaskIncrementTick+0x78>
 8002f40:	683a      	ldr	r2, [r7, #0]
 8002f42:	4b2f      	ldr	r3, [pc, #188]	; (8003000 <xTaskIncrementTick+0x114>)
 8002f44:	6ad1      	ldr	r1, [r2, #44]	; 0x2c
 8002f46:	2214      	movs	r2, #20
 8002f48:	434a      	muls	r2, r1
 8002f4a:	589a      	ldr	r2, [r3, r2]
 8002f4c:	2a02      	cmp	r2, #2
 8002f4e:	bf28      	it	cs
 8002f50:	f04f 0b01 	movcs.w	fp, #1
 8002f54:	4a2b      	ldr	r2, [pc, #172]	; (8003004 <xTaskIncrementTick+0x118>)
 8002f56:	6812      	ldr	r2, [r2, #0]
 8002f58:	2a00      	cmp	r2, #0
 8002f5a:	bf0c      	ite	eq
 8002f5c:	4658      	moveq	r0, fp
 8002f5e:	2001      	movne	r0, #1
 8002f60:	e8bd 8ff8 	ldmia.w	sp!, {r3, r4, r5, r6, r7, r8, r9, sl, fp, pc}
 8002f64:	f8df a084 	ldr.w	sl, [pc, #132]	; 8002fec <xTaskIncrementTick+0x100>
 8002f68:	f8df 90a0 	ldr.w	r9, [pc, #160]	; 800300c <xTaskIncrementTick+0x120>
 8002f6c:	f8da 2000 	ldr.w	r2, [sl]
 8002f70:	6812      	ldr	r2, [r2, #0]
 8002f72:	b91a      	cbnz	r2, 8002f7c <xTaskIncrementTick+0x90>
 8002f74:	f04f 32ff 	mov.w	r2, #4294967295
 8002f78:	602a      	str	r2, [r5, #0]
 8002f7a:	e7e1      	b.n	8002f40 <xTaskIncrementTick+0x54>
 8002f7c:	f8da 2000 	ldr.w	r2, [sl]
 8002f80:	68d2      	ldr	r2, [r2, #12]
 8002f82:	68d6      	ldr	r6, [r2, #12]
 8002f84:	6871      	ldr	r1, [r6, #4]
 8002f86:	428c      	cmp	r4, r1
 8002f88:	d201      	bcs.n	8002f8e <xTaskIncrementTick+0xa2>
 8002f8a:	6029      	str	r1, [r5, #0]
 8002f8c:	e7d8      	b.n	8002f40 <xTaskIncrementTick+0x54>
 8002f8e:	f106 0804 	add.w	r8, r6, #4
 8002f92:	4640      	mov	r0, r8
 8002f94:	f7ff fd8a 	bl	8002aac <uxListRemove>
 8002f98:	6ab1      	ldr	r1, [r6, #40]	; 0x28
 8002f9a:	b119      	cbz	r1, 8002fa4 <xTaskIncrementTick+0xb8>
 8002f9c:	f106 0018 	add.w	r0, r6, #24
 8002fa0:	f7ff fd84 	bl	8002aac <uxListRemove>
 8002fa4:	6af0      	ldr	r0, [r6, #44]	; 0x2c
 8002fa6:	f8d9 3000 	ldr.w	r3, [r9]
 8002faa:	2201      	movs	r2, #1
 8002fac:	fa02 f100 	lsl.w	r1, r2, r0
 8002fb0:	4319      	orrs	r1, r3
 8002fb2:	4b13      	ldr	r3, [pc, #76]	; (8003000 <xTaskIncrementTick+0x114>)
 8002fb4:	f8c9 1000 	str.w	r1, [r9]
 8002fb8:	f04f 0c14 	mov.w	ip, #20
 8002fbc:	4641      	mov	r1, r8
 8002fbe:	fb0c 3000 	mla	r0, ip, r0, r3
 8002fc2:	f7ff fd50 	bl	8002a66 <vListInsertEnd>
 8002fc6:	6838      	ldr	r0, [r7, #0]
 8002fc8:	6af1      	ldr	r1, [r6, #44]	; 0x2c
 8002fca:	6ac2      	ldr	r2, [r0, #44]	; 0x2c
 8002fcc:	4291      	cmp	r1, r2
 8002fce:	bf28      	it	cs
 8002fd0:	f04f 0b01 	movcs.w	fp, #1
 8002fd4:	e7ca      	b.n	8002f6c <xTaskIncrementTick+0x80>
 8002fd6:	4a0c      	ldr	r2, [pc, #48]	; (8003008 <xTaskIncrementTick+0x11c>)
 8002fd8:	6813      	ldr	r3, [r2, #0]
 8002fda:	3301      	adds	r3, #1
 8002fdc:	6013      	str	r3, [r2, #0]
 8002fde:	f04f 0b00 	mov.w	fp, #0
 8002fe2:	e7b7      	b.n	8002f54 <xTaskIncrementTick+0x68>
 8002fe4:	200003ac 	.word	0x200003ac
 8002fe8:	20000428 	.word	0x20000428
 8002fec:	2000030c 	.word	0x2000030c
 8002ff0:	20000310 	.word	0x20000310
 8002ff4:	200003e4 	.word	0x200003e4
 8002ff8:	200003e0 	.word	0x200003e0
 8002ffc:	20000308 	.word	0x20000308
 8003000:	20000314 	.word	0x20000314
 8003004:	2000042c 	.word	0x2000042c
 8003008:	200003a8 	.word	0x200003a8
 800300c:	200003b4 	.word	0x200003b4

08003010 <xTaskResumeAll>:
 8003010:	e92d 43f8 	stmdb	sp!, {r3, r4, r5, r6, r7, r8, r9, lr}
 8003014:	4c30      	ldr	r4, [pc, #192]	; (80030d8 <xTaskResumeAll+0xc8>)
 8003016:	6823      	ldr	r3, [r4, #0]
 8003018:	b943      	cbnz	r3, 800302c <xTaskResumeAll+0x1c>
 800301a:	f04f 0350 	mov.w	r3, #80	; 0x50
 800301e:	f383 8811 	msr	BASEPRI, r3
 8003022:	f3bf 8f6f 	isb	sy
 8003026:	f3bf 8f4f 	dsb	sy
 800302a:	e7fe      	b.n	800302a <xTaskResumeAll+0x1a>
 800302c:	f000 f92a 	bl	8003284 <vPortEnterCritical>
 8003030:	6823      	ldr	r3, [r4, #0]
 8003032:	3b01      	subs	r3, #1
 8003034:	6023      	str	r3, [r4, #0]
 8003036:	6824      	ldr	r4, [r4, #0]
 8003038:	b12c      	cbz	r4, 8003046 <xTaskResumeAll+0x36>
 800303a:	2400      	movs	r4, #0
 800303c:	f000 f944 	bl	80032c8 <vPortExitCritical>
 8003040:	4620      	mov	r0, r4
 8003042:	e8bd 83f8 	ldmia.w	sp!, {r3, r4, r5, r6, r7, r8, r9, pc}
 8003046:	4b25      	ldr	r3, [pc, #148]	; (80030dc <xTaskResumeAll+0xcc>)
 8003048:	681b      	ldr	r3, [r3, #0]
 800304a:	2b00      	cmp	r3, #0
 800304c:	d0f5      	beq.n	800303a <xTaskResumeAll+0x2a>
 800304e:	4d24      	ldr	r5, [pc, #144]	; (80030e0 <xTaskResumeAll+0xd0>)
 8003050:	4e24      	ldr	r6, [pc, #144]	; (80030e4 <xTaskResumeAll+0xd4>)
 8003052:	f8df 80a4 	ldr.w	r8, [pc, #164]	; 80030f8 <xTaskResumeAll+0xe8>
 8003056:	e01f      	b.n	8003098 <xTaskResumeAll+0x88>
 8003058:	68eb      	ldr	r3, [r5, #12]
 800305a:	68dc      	ldr	r4, [r3, #12]
 800305c:	f104 0904 	add.w	r9, r4, #4
 8003060:	f104 0018 	add.w	r0, r4, #24
 8003064:	f7ff fd22 	bl	8002aac <uxListRemove>
 8003068:	4648      	mov	r0, r9
 800306a:	f7ff fd1f 	bl	8002aac <uxListRemove>
 800306e:	6ae2      	ldr	r2, [r4, #44]	; 0x2c
 8003070:	6831      	ldr	r1, [r6, #0]
 8003072:	2701      	movs	r7, #1
 8003074:	fa07 f302 	lsl.w	r3, r7, r2
 8003078:	2014      	movs	r0, #20
 800307a:	430b      	orrs	r3, r1
 800307c:	fb00 8002 	mla	r0, r0, r2, r8
 8003080:	4649      	mov	r1, r9
 8003082:	6033      	str	r3, [r6, #0]
 8003084:	f7ff fcef 	bl	8002a66 <vListInsertEnd>
 8003088:	4b17      	ldr	r3, [pc, #92]	; (80030e8 <xTaskResumeAll+0xd8>)
 800308a:	6ae2      	ldr	r2, [r4, #44]	; 0x2c
 800308c:	681b      	ldr	r3, [r3, #0]
 800308e:	6adb      	ldr	r3, [r3, #44]	; 0x2c
 8003090:	429a      	cmp	r2, r3
 8003092:	d301      	bcc.n	8003098 <xTaskResumeAll+0x88>
 8003094:	4b15      	ldr	r3, [pc, #84]	; (80030ec <xTaskResumeAll+0xdc>)
 8003096:	601f      	str	r7, [r3, #0]
 8003098:	682b      	ldr	r3, [r5, #0]
 800309a:	2b00      	cmp	r3, #0
 800309c:	d1dc      	bne.n	8003058 <xTaskResumeAll+0x48>
 800309e:	b10c      	cbz	r4, 80030a4 <xTaskResumeAll+0x94>
 80030a0:	f7ff fde2 	bl	8002c68 <prvResetNextTaskUnblockTime>
 80030a4:	4d12      	ldr	r5, [pc, #72]	; (80030f0 <xTaskResumeAll+0xe0>)
 80030a6:	682c      	ldr	r4, [r5, #0]
 80030a8:	b144      	cbz	r4, 80030bc <xTaskResumeAll+0xac>
 80030aa:	4e10      	ldr	r6, [pc, #64]	; (80030ec <xTaskResumeAll+0xdc>)
 80030ac:	2701      	movs	r7, #1
 80030ae:	f7ff ff1d 	bl	8002eec <xTaskIncrementTick>
 80030b2:	b100      	cbz	r0, 80030b6 <xTaskResumeAll+0xa6>
 80030b4:	6037      	str	r7, [r6, #0]
 80030b6:	3c01      	subs	r4, #1
 80030b8:	d1f9      	bne.n	80030ae <xTaskResumeAll+0x9e>
 80030ba:	602c      	str	r4, [r5, #0]
 80030bc:	4b0b      	ldr	r3, [pc, #44]	; (80030ec <xTaskResumeAll+0xdc>)
 80030be:	681b      	ldr	r3, [r3, #0]
 80030c0:	2b00      	cmp	r3, #0
 80030c2:	d0ba      	beq.n	800303a <xTaskResumeAll+0x2a>
 80030c4:	4b0b      	ldr	r3, [pc, #44]	; (80030f4 <xTaskResumeAll+0xe4>)
 80030c6:	f04f 5280 	mov.w	r2, #268435456	; 0x10000000
 80030ca:	601a      	str	r2, [r3, #0]
 80030cc:	f3bf 8f4f 	dsb	sy
 80030d0:	f3bf 8f6f 	isb	sy
 80030d4:	2401      	movs	r4, #1
 80030d6:	e7b1      	b.n	800303c <xTaskResumeAll+0x2c>
 80030d8:	200003ac 	.word	0x200003ac
 80030dc:	200003a0 	.word	0x200003a0
 80030e0:	200003e8 	.word	0x200003e8
 80030e4:	200003b4 	.word	0x200003b4
 80030e8:	20000308 	.word	0x20000308
 80030ec:	2000042c 	.word	0x2000042c
 80030f0:	200003a8 	.word	0x200003a8
 80030f4:	e000ed04 	.word	0xe000ed04
 80030f8:	20000314 	.word	0x20000314

080030fc <vTaskDelay>:
 80030fc:	b508      	push	{r3, lr}
 80030fe:	b940      	cbnz	r0, 8003112 <vTaskDelay+0x16>
 8003100:	4b0e      	ldr	r3, [pc, #56]	; (800313c <vTaskDelay+0x40>)
 8003102:	f04f 5280 	mov.w	r2, #268435456	; 0x10000000
 8003106:	601a      	str	r2, [r3, #0]
 8003108:	f3bf 8f4f 	dsb	sy
 800310c:	f3bf 8f6f 	isb	sy
 8003110:	bd08      	pop	{r3, pc}
 8003112:	4b0b      	ldr	r3, [pc, #44]	; (8003140 <vTaskDelay+0x44>)
 8003114:	6819      	ldr	r1, [r3, #0]
 8003116:	b141      	cbz	r1, 800312a <vTaskDelay+0x2e>
 8003118:	f04f 0350 	mov.w	r3, #80	; 0x50
 800311c:	f383 8811 	msr	BASEPRI, r3
 8003120:	f3bf 8f6f 	isb	sy
 8003124:	f3bf 8f4f 	dsb	sy
 8003128:	e7fe      	b.n	8003128 <vTaskDelay+0x2c>
 800312a:	f7ff fed7 	bl	8002edc <vTaskSuspendAll>
 800312e:	f7ff fdf3 	bl	8002d18 <prvAddCurrentTaskToDelayedList>
 8003132:	f7ff ff6d 	bl	8003010 <xTaskResumeAll>
 8003136:	2800      	cmp	r0, #0
 8003138:	d0e2      	beq.n	8003100 <vTaskDelay+0x4>
 800313a:	e7e9      	b.n	8003110 <vTaskDelay+0x14>
 800313c:	e000ed04 	.word	0xe000ed04
 8003140:	200003ac 	.word	0x200003ac

08003144 <vTaskSwitchContext>:
 8003144:	4b17      	ldr	r3, [pc, #92]	; (80031a4 <vTaskSwitchContext+0x60>)
 8003146:	681a      	ldr	r2, [r3, #0]
 8003148:	4b17      	ldr	r3, [pc, #92]	; (80031a8 <vTaskSwitchContext+0x64>)
 800314a:	b510      	push	{r4, lr}
 800314c:	b112      	cbz	r2, 8003154 <vTaskSwitchContext+0x10>
 800314e:	2201      	movs	r2, #1
 8003150:	601a      	str	r2, [r3, #0]
 8003152:	bd10      	pop	{r4, pc}
 8003154:	601a      	str	r2, [r3, #0]
 8003156:	4b15      	ldr	r3, [pc, #84]	; (80031ac <vTaskSwitchContext+0x68>)
 8003158:	681b      	ldr	r3, [r3, #0]
 800315a:	fab3 f383 	clz	r3, r3
 800315e:	b2db      	uxtb	r3, r3
 8003160:	f1c3 031f 	rsb	r3, r3, #31
 8003164:	2214      	movs	r2, #20
 8003166:	4912      	ldr	r1, [pc, #72]	; (80031b0 <vTaskSwitchContext+0x6c>)
 8003168:	435a      	muls	r2, r3
 800316a:	1888      	adds	r0, r1, r2
 800316c:	588c      	ldr	r4, [r1, r2]
 800316e:	b944      	cbnz	r4, 8003182 <vTaskSwitchContext+0x3e>
 8003170:	f04f 0350 	mov.w	r3, #80	; 0x50
 8003174:	f383 8811 	msr	BASEPRI, r3
 8003178:	f3bf 8f6f 	isb	sy
 800317c:	f3bf 8f4f 	dsb	sy
 8003180:	e7fe      	b.n	8003180 <vTaskSwitchContext+0x3c>
 8003182:	6844      	ldr	r4, [r0, #4]
 8003184:	3208      	adds	r2, #8
 8003186:	6864      	ldr	r4, [r4, #4]
 8003188:	6044      	str	r4, [r0, #4]
 800318a:	440a      	add	r2, r1
 800318c:	4294      	cmp	r4, r2
 800318e:	bf04      	itt	eq
 8003190:	6862      	ldreq	r2, [r4, #4]
 8003192:	6042      	streq	r2, [r0, #4]
 8003194:	2214      	movs	r2, #20
 8003196:	fb02 1303 	mla	r3, r2, r3, r1
 800319a:	685b      	ldr	r3, [r3, #4]
 800319c:	68da      	ldr	r2, [r3, #12]
 800319e:	4b05      	ldr	r3, [pc, #20]	; (80031b4 <vTaskSwitchContext+0x70>)
 80031a0:	e7d6      	b.n	8003150 <vTaskSwitchContext+0xc>
 80031a2:	bf00      	nop
 80031a4:	200003ac 	.word	0x200003ac
 80031a8:	2000042c 	.word	0x2000042c
 80031ac:	200003b4 	.word	0x200003b4
 80031b0:	20000314 	.word	0x20000314
 80031b4:	20000308 	.word	0x20000308

080031b8 <prvTaskExitError>:
 80031b8:	b082      	sub	sp, #8
 80031ba:	2300      	movs	r3, #0
 80031bc:	9301      	str	r3, [sp, #4]
 80031be:	4b0d      	ldr	r3, [pc, #52]	; (80031f4 <prvTaskExitError+0x3c>)
 80031c0:	681b      	ldr	r3, [r3, #0]
 80031c2:	3301      	adds	r3, #1
 80031c4:	d008      	beq.n	80031d8 <prvTaskExitError+0x20>
 80031c6:	f04f 0350 	mov.w	r3, #80	; 0x50
 80031ca:	f383 8811 	msr	BASEPRI, r3
 80031ce:	f3bf 8f6f 	isb	sy
 80031d2:	f3bf 8f4f 	dsb	sy
 80031d6:	e7fe      	b.n	80031d6 <prvTaskExitError+0x1e>
 80031d8:	f04f 0350 	mov.w	r3, #80	; 0x50
 80031dc:	f383 8811 	msr	BASEPRI, r3
 80031e0:	f3bf 8f6f 	isb	sy
 80031e4:	f3bf 8f4f 	dsb	sy
 80031e8:	9b01      	ldr	r3, [sp, #4]
 80031ea:	2b00      	cmp	r3, #0
 80031ec:	d0fc      	beq.n	80031e8 <prvTaskExitError+0x30>
 80031ee:	b002      	add	sp, #8
 80031f0:	4770      	bx	lr
 80031f2:	bf00      	nop
 80031f4:	2000000c 	.word	0x2000000c

080031f8 <prvPortStartFirstTask>:
 80031f8:	4808      	ldr	r0, [pc, #32]	; (800321c <prvPortStartFirstTask+0x24>)
 80031fa:	6800      	ldr	r0, [r0, #0]
 80031fc:	6800      	ldr	r0, [r0, #0]
 80031fe:	f380 8808 	msr	MSP, r0
 8003202:	f04f 0000 	mov.w	r0, #0
 8003206:	f380 8814 	msr	CONTROL, r0
 800320a:	b662      	cpsie	i
 800320c:	b661      	cpsie	f
 800320e:	f3bf 8f4f 	dsb	sy
 8003212:	f3bf 8f6f 	isb	sy
 8003216:	df00      	svc	0
 8003218:	bf00      	nop
 800321a:	0000      	.short	0x0000
 800321c:	e000ed08 	.word	0xe000ed08

08003220 <vPortEnableVFP>:
 8003220:	f8df 000c 	ldr.w	r0, [pc, #12]	; 8003230 <vPortEnableVFP+0x10>
 8003224:	6801      	ldr	r1, [r0, #0]
 8003226:	f441 0170 	orr.w	r1, r1, #15728640	; 0xf00000
 800322a:	6001      	str	r1, [r0, #0]
 800322c:	4770      	bx	lr
 800322e:	0000      	.short	0x0000
 8003230:	e000ed88 	.word	0xe000ed88

08003234 <pxPortInitialiseStack>:
 8003234:	f04f 7380 	mov.w	r3, #16777216	; 0x1000000
 8003238:	f840 3c04 	str.w	r3, [r0, #-4]
 800323c:	4b07      	ldr	r3, [pc, #28]	; (800325c <pxPortInitialiseStack+0x28>)
 800323e:	f840 3c0c 	str.w	r3, [r0, #-12]
 8003242:	f021 0101 	bic.w	r1, r1, #1
 8003246:	f06f 0302 	mvn.w	r3, #2
 800324a:	f840 1c08 	str.w	r1, [r0, #-8]
 800324e:	f840 2c20 	str.w	r2, [r0, #-32]
 8003252:	f840 3c24 	str.w	r3, [r0, #-36]
 8003256:	3844      	subs	r0, #68	; 0x44
 8003258:	4770      	bx	lr
 800325a:	bf00      	nop
 800325c:	080031b9 	.word	0x080031b9

08003260 <SVC_Handler>:
 8003260:	4b07      	ldr	r3, [pc, #28]	; (8003280 <pxCurrentTCBConst2>)
 8003262:	6819      	ldr	r1, [r3, #0]
 8003264:	6808      	ldr	r0, [r1, #0]
 8003266:	e8b0 4ff0 	ldmia.w	r0!, {r4, r5, r6, r7, r8, r9, sl, fp, lr}
 800326a:	f380 8809 	msr	PSP, r0
 800326e:	f3bf 8f6f 	isb	sy
 8003272:	f04f 0000 	mov.w	r0, #0
 8003276:	f380 8811 	msr	BASEPRI, r0
 800327a:	4770      	bx	lr
 800327c:	f3af 8000 	nop.w

08003280 <pxCurrentTCBConst2>:
 8003280:	20000308 	.word	0x20000308

08003284 <vPortEnterCritical>:
 8003284:	f04f 0350 	mov.w	r3, #80	; 0x50
 8003288:	f383 8811 	msr	BASEPRI, r3
 800328c:	f3bf 8f6f 	isb	sy
 8003290:	f3bf 8f4f 	dsb	sy
 8003294:	4a0a      	ldr	r2, [pc, #40]	; (80032c0 <vPortEnterCritical+0x3c>)
 8003296:	6813      	ldr	r3, [r2, #0]
 8003298:	3301      	adds	r3, #1
 800329a:	2b01      	cmp	r3, #1
 800329c:	6013      	str	r3, [r2, #0]
 800329e:	d10d      	bne.n	80032bc <vPortEnterCritical+0x38>
 80032a0:	4b08      	ldr	r3, [pc, #32]	; (80032c4 <vPortEnterCritical+0x40>)
 80032a2:	681b      	ldr	r3, [r3, #0]
 80032a4:	f013 0fff 	tst.w	r3, #255	; 0xff
 80032a8:	d008      	beq.n	80032bc <vPortEnterCritical+0x38>
 80032aa:	f04f 0350 	mov.w	r3, #80	; 0x50
 80032ae:	f383 8811 	msr	BASEPRI, r3
 80032b2:	f3bf 8f6f 	isb	sy
 80032b6:	f3bf 8f4f 	dsb	sy
 80032ba:	e7fe      	b.n	80032ba <vPortEnterCritical+0x36>
 80032bc:	4770      	bx	lr
 80032be:	bf00      	nop
 80032c0:	2000000c 	.word	0x2000000c
 80032c4:	e000ed04 	.word	0xe000ed04

080032c8 <vPortExitCritical>:
 80032c8:	4a08      	ldr	r2, [pc, #32]	; (80032ec <vPortExitCritical+0x24>)
 80032ca:	6813      	ldr	r3, [r2, #0]
 80032cc:	b943      	cbnz	r3, 80032e0 <vPortExitCritical+0x18>
 80032ce:	f04f 0350 	mov.w	r3, #80	; 0x50
 80032d2:	f383 8811 	msr	BASEPRI, r3
 80032d6:	f3bf 8f6f 	isb	sy
 80032da:	f3bf 8f4f 	dsb	sy
 80032de:	e7fe      	b.n	80032de <vPortExitCritical+0x16>
 80032e0:	3b01      	subs	r3, #1
 80032e2:	6013      	str	r3, [r2, #0]
 80032e4:	b90b      	cbnz	r3, 80032ea <vPortExitCritical+0x22>
 80032e6:	f383 8811 	msr	BASEPRI, r3
 80032ea:	4770      	bx	lr
 80032ec:	2000000c 	.word	0x2000000c

080032f0 <PendSV_Handler>:
 80032f0:	f3ef 8009 	mrs	r0, PSP
 80032f4:	f3bf 8f6f 	isb	sy
 80032f8:	4b15      	ldr	r3, [pc, #84]	; (8003350 <pxCurrentTCBConst>)
 80032fa:	681a      	ldr	r2, [r3, #0]
 80032fc:	f01e 0f10 	tst.w	lr, #16
 8003300:	bf08      	it	eq
 8003302:	ed20 8a10 	vstmdbeq	r0!, {s16-s31}
 8003306:	e920 4ff0 	stmdb	r0!, {r4, r5, r6, r7, r8, r9, sl, fp, lr}
 800330a:	6010      	str	r0, [r2, #0]
 800330c:	e92d 0009 	stmdb	sp!, {r0, r3}
 8003310:	f04f 0050 	mov.w	r0, #80	; 0x50
 8003314:	f380 8811 	msr	BASEPRI, r0
 8003318:	f3bf 8f4f 	dsb	sy
 800331c:	f3bf 8f6f 	isb	sy
 8003320:	f7ff ff10 	bl	8003144 <vTaskSwitchContext>
 8003324:	f04f 0000 	mov.w	r0, #0
 8003328:	f380 8811 	msr	BASEPRI, r0
 800332c:	bc09      	pop	{r0, r3}
 800332e:	6819      	ldr	r1, [r3, #0]
 8003330:	6808      	ldr	r0, [r1, #0]
 8003332:	e8b0 4ff0 	ldmia.w	r0!, {r4, r5, r6, r7, r8, r9, sl, fp, lr}
 8003336:	f01e 0f10 	tst.w	lr, #16
 800333a:	bf08      	it	eq
 800333c:	ecb0 8a10 	vldmiaeq	r0!, {s16-s31}
 8003340:	f380 8809 	msr	PSP, r0
 8003344:	f3bf 8f6f 	isb	sy
 8003348:	4770      	bx	lr
 800334a:	bf00      	nop
 800334c:	f3af 8000 	nop.w

08003350 <pxCurrentTCBConst>:
 8003350:	20000308 	.word	0x20000308

08003354 <SysTick_Handler>:
 8003354:	b508      	push	{r3, lr}
 8003356:	f04f 0350 	mov.w	r3, #80	; 0x50
 800335a:	f383 8811 	msr	BASEPRI, r3
 800335e:	f3bf 8f6f 	isb	sy
 8003362:	f3bf 8f4f 	dsb	sy
 8003366:	f7ff fdc1 	bl	8002eec <xTaskIncrementTick>
 800336a:	b118      	cbz	r0, 8003374 <SysTick_Handler+0x20>
 800336c:	4b03      	ldr	r3, [pc, #12]	; (800337c <SysTick_Handler+0x28>)
 800336e:	f04f 5280 	mov.w	r2, #268435456	; 0x10000000
 8003372:	601a      	str	r2, [r3, #0]
 8003374:	2300      	movs	r3, #0
 8003376:	f383 8811 	msr	BASEPRI, r3
 800337a:	bd08      	pop	{r3, pc}
 800337c:	e000ed04 	.word	0xe000ed04

08003380 <vPortSetupTimerInterrupt>:
 8003380:	4a08      	ldr	r2, [pc, #32]	; (80033a4 <vPortSetupTimerInterrupt+0x24>)
 8003382:	4909      	ldr	r1, [pc, #36]	; (80033a8 <vPortSetupTimerInterrupt+0x28>)
 8003384:	2300      	movs	r3, #0
 8003386:	6013      	str	r3, [r2, #0]
 8003388:	600b      	str	r3, [r1, #0]
 800338a:	4b08      	ldr	r3, [pc, #32]	; (80033ac <vPortSetupTimerInterrupt+0x2c>)
 800338c:	f44f 717a 	mov.w	r1, #1000	; 0x3e8
 8003390:	681b      	ldr	r3, [r3, #0]
 8003392:	fbb3 f3f1 	udiv	r3, r3, r1
 8003396:	4906      	ldr	r1, [pc, #24]	; (80033b0 <vPortSetupTimerInterrupt+0x30>)
 8003398:	3b01      	subs	r3, #1
 800339a:	600b      	str	r3, [r1, #0]
 800339c:	2307      	movs	r3, #7
 800339e:	6013      	str	r3, [r2, #0]
 80033a0:	4770      	bx	lr
 80033a2:	bf00      	nop
 80033a4:	e000e010 	.word	0xe000e010
 80033a8:	e000e018 	.word	0xe000e018
 80033ac:	20000000 	.word	0x20000000
 80033b0:	e000e014 	.word	0xe000e014

080033b4 <xPortStartScheduler>:
 80033b4:	4b39      	ldr	r3, [pc, #228]	; (800349c <xPortStartScheduler+0xe8>)
 80033b6:	4a3a      	ldr	r2, [pc, #232]	; (80034a0 <xPortStartScheduler+0xec>)
 80033b8:	b513      	push	{r0, r1, r4, lr}
 80033ba:	6819      	ldr	r1, [r3, #0]
 80033bc:	4291      	cmp	r1, r2
 80033be:	d108      	bne.n	80033d2 <xPortStartScheduler+0x1e>
 80033c0:	f04f 0350 	mov.w	r3, #80	; 0x50
 80033c4:	f383 8811 	msr	BASEPRI, r3
 80033c8:	f3bf 8f6f 	isb	sy
 80033cc:	f3bf 8f4f 	dsb	sy
 80033d0:	e7fe      	b.n	80033d0 <xPortStartScheduler+0x1c>
 80033d2:	681a      	ldr	r2, [r3, #0]
 80033d4:	4b33      	ldr	r3, [pc, #204]	; (80034a4 <xPortStartScheduler+0xf0>)
 80033d6:	429a      	cmp	r2, r3
 80033d8:	d108      	bne.n	80033ec <xPortStartScheduler+0x38>
 80033da:	f04f 0350 	mov.w	r3, #80	; 0x50
 80033de:	f383 8811 	msr	BASEPRI, r3
 80033e2:	f3bf 8f6f 	isb	sy
 80033e6:	f3bf 8f4f 	dsb	sy
 80033ea:	e7fe      	b.n	80033ea <xPortStartScheduler+0x36>
 80033ec:	4b2e      	ldr	r3, [pc, #184]	; (80034a8 <xPortStartScheduler+0xf4>)
 80033ee:	781a      	ldrb	r2, [r3, #0]
 80033f0:	b2d2      	uxtb	r2, r2
 80033f2:	9201      	str	r2, [sp, #4]
 80033f4:	22ff      	movs	r2, #255	; 0xff
 80033f6:	701a      	strb	r2, [r3, #0]
 80033f8:	781b      	ldrb	r3, [r3, #0]
 80033fa:	4a2c      	ldr	r2, [pc, #176]	; (80034ac <xPortStartScheduler+0xf8>)
 80033fc:	b2db      	uxtb	r3, r3
 80033fe:	f88d 3003 	strb.w	r3, [sp, #3]
 8003402:	f89d 3003 	ldrb.w	r3, [sp, #3]
 8003406:	f003 0350 	and.w	r3, r3, #80	; 0x50
 800340a:	7013      	strb	r3, [r2, #0]
 800340c:	4b28      	ldr	r3, [pc, #160]	; (80034b0 <xPortStartScheduler+0xfc>)
 800340e:	2207      	movs	r2, #7
 8003410:	601a      	str	r2, [r3, #0]
 8003412:	2100      	movs	r1, #0
 8003414:	f89d 0003 	ldrb.w	r0, [sp, #3]
 8003418:	0600      	lsls	r0, r0, #24
 800341a:	f102 34ff 	add.w	r4, r2, #4294967295
 800341e:	d40d      	bmi.n	800343c <xPortStartScheduler+0x88>
 8003420:	b101      	cbz	r1, 8003424 <xPortStartScheduler+0x70>
 8003422:	601a      	str	r2, [r3, #0]
 8003424:	681a      	ldr	r2, [r3, #0]
 8003426:	2a03      	cmp	r2, #3
 8003428:	d011      	beq.n	800344e <xPortStartScheduler+0x9a>
 800342a:	f04f 0350 	mov.w	r3, #80	; 0x50
 800342e:	f383 8811 	msr	BASEPRI, r3
 8003432:	f3bf 8f6f 	isb	sy
 8003436:	f3bf 8f4f 	dsb	sy
 800343a:	e7fe      	b.n	800343a <xPortStartScheduler+0x86>
 800343c:	f89d 2003 	ldrb.w	r2, [sp, #3]
 8003440:	0052      	lsls	r2, r2, #1
 8003442:	b2d2      	uxtb	r2, r2
 8003444:	f88d 2003 	strb.w	r2, [sp, #3]
 8003448:	2101      	movs	r1, #1
 800344a:	4622      	mov	r2, r4
 800344c:	e7e2      	b.n	8003414 <xPortStartScheduler+0x60>
 800344e:	0212      	lsls	r2, r2, #8
 8003450:	f402 62e0 	and.w	r2, r2, #1792	; 0x700
 8003454:	601a      	str	r2, [r3, #0]
 8003456:	9b01      	ldr	r3, [sp, #4]
 8003458:	4a13      	ldr	r2, [pc, #76]	; (80034a8 <xPortStartScheduler+0xf4>)
 800345a:	b2db      	uxtb	r3, r3
 800345c:	7013      	strb	r3, [r2, #0]
 800345e:	4b15      	ldr	r3, [pc, #84]	; (80034b4 <xPortStartScheduler+0x100>)
 8003460:	681a      	ldr	r2, [r3, #0]
 8003462:	f442 0270 	orr.w	r2, r2, #15728640	; 0xf00000
 8003466:	601a      	str	r2, [r3, #0]
 8003468:	681a      	ldr	r2, [r3, #0]
 800346a:	f042 4270 	orr.w	r2, r2, #4026531840	; 0xf0000000
 800346e:	601a      	str	r2, [r3, #0]
 8003470:	f7ff ff86 	bl	8003380 <vPortSetupTimerInterrupt>
 8003474:	4b10      	ldr	r3, [pc, #64]	; (80034b8 <xPortStartScheduler+0x104>)
 8003476:	2400      	movs	r4, #0
 8003478:	601c      	str	r4, [r3, #0]
 800347a:	f7ff fed1 	bl	8003220 <vPortEnableVFP>
 800347e:	4a0f      	ldr	r2, [pc, #60]	; (80034bc <xPortStartScheduler+0x108>)
 8003480:	6813      	ldr	r3, [r2, #0]
 8003482:	f043 4340 	orr.w	r3, r3, #3221225472	; 0xc0000000
 8003486:	6013      	str	r3, [r2, #0]
 8003488:	f7ff feb6 	bl	80031f8 <prvPortStartFirstTask>
 800348c:	f7ff fe5a 	bl	8003144 <vTaskSwitchContext>
 8003490:	f7ff fe92 	bl	80031b8 <prvTaskExitError>
 8003494:	4620      	mov	r0, r4
 8003496:	b002      	add	sp, #8
 8003498:	bd10      	pop	{r4, pc}
 800349a:	bf00      	nop
 800349c:	e000ed00 	.word	0xe000ed00
 80034a0:	410fc271 	.word	0x410fc271
 80034a4:	410fc270 	.word	0x410fc270
 80034a8:	e000e400 	.word	0xe000e400
 80034ac:	20000430 	.word	0x20000430
 80034b0:	20000434 	.word	0x20000434
 80034b4:	e000ed20 	.word	0xe000ed20
 80034b8:	2000000c 	.word	0x2000000c
 80034bc:	e000ef34 	.word	0xe000ef34

080034c0 <prvInsertBlockIntoFreeList>:
 80034c0:	b510      	push	{r4, lr}
 80034c2:	4b0f      	ldr	r3, [pc, #60]	; (8003500 <prvInsertBlockIntoFreeList+0x40>)
 80034c4:	681a      	ldr	r2, [r3, #0]
 80034c6:	4282      	cmp	r2, r0
 80034c8:	d318      	bcc.n	80034fc <prvInsertBlockIntoFreeList+0x3c>
 80034ca:	685c      	ldr	r4, [r3, #4]
 80034cc:	1919      	adds	r1, r3, r4
 80034ce:	4288      	cmp	r0, r1
 80034d0:	bf01      	itttt	eq
 80034d2:	6841      	ldreq	r1, [r0, #4]
 80034d4:	4618      	moveq	r0, r3
 80034d6:	1909      	addeq	r1, r1, r4
 80034d8:	6059      	streq	r1, [r3, #4]
 80034da:	6844      	ldr	r4, [r0, #4]
 80034dc:	1901      	adds	r1, r0, r4
 80034de:	428a      	cmp	r2, r1
 80034e0:	d107      	bne.n	80034f2 <prvInsertBlockIntoFreeList+0x32>
 80034e2:	4908      	ldr	r1, [pc, #32]	; (8003504 <prvInsertBlockIntoFreeList+0x44>)
 80034e4:	6809      	ldr	r1, [r1, #0]
 80034e6:	428a      	cmp	r2, r1
 80034e8:	bf1f      	itttt	ne
 80034ea:	6851      	ldrne	r1, [r2, #4]
 80034ec:	6812      	ldrne	r2, [r2, #0]
 80034ee:	1909      	addne	r1, r1, r4
 80034f0:	6041      	strne	r1, [r0, #4]
 80034f2:	4298      	cmp	r0, r3
 80034f4:	6002      	str	r2, [r0, #0]
 80034f6:	bf18      	it	ne
 80034f8:	6018      	strne	r0, [r3, #0]
 80034fa:	bd10      	pop	{r4, pc}
 80034fc:	4613      	mov	r3, r2
 80034fe:	e7e1      	b.n	80034c4 <prvInsertBlockIntoFreeList+0x4>
 8003500:	20004048 	.word	0x20004048
 8003504:	20000438 	.word	0x20000438

08003508 <pvPortMalloc>:
 8003508:	e92d 41f0 	stmdb	sp!, {r4, r5, r6, r7, r8, lr}
 800350c:	4604      	mov	r4, r0
 800350e:	f7ff fce5 	bl	8002edc <vTaskSuspendAll>
 8003512:	493d      	ldr	r1, [pc, #244]	; (8003608 <pvPortMalloc+0x100>)
 8003514:	4d3d      	ldr	r5, [pc, #244]	; (800360c <pvPortMalloc+0x104>)
 8003516:	680b      	ldr	r3, [r1, #0]
 8003518:	b9fb      	cbnz	r3, 800355a <pvPortMalloc+0x52>
 800351a:	4a3d      	ldr	r2, [pc, #244]	; (8003610 <pvPortMalloc+0x108>)
 800351c:	0756      	lsls	r6, r2, #29
 800351e:	f502 5370 	add.w	r3, r2, #15360	; 0x3c00
 8003522:	bf1d      	ittte	ne
 8003524:	3207      	addne	r2, #7
 8003526:	f022 0207 	bicne.w	r2, r2, #7
 800352a:	1a9b      	subne	r3, r3, r2
 800352c:	f44f 5370 	moveq.w	r3, #15360	; 0x3c00
 8003530:	4413      	add	r3, r2
 8003532:	4e38      	ldr	r6, [pc, #224]	; (8003614 <pvPortMalloc+0x10c>)
 8003534:	3b08      	subs	r3, #8
 8003536:	f023 0307 	bic.w	r3, r3, #7
 800353a:	2000      	movs	r0, #0
 800353c:	6070      	str	r0, [r6, #4]
 800353e:	6032      	str	r2, [r6, #0]
 8003540:	e9c3 0000 	strd	r0, r0, [r3]
 8003544:	1a98      	subs	r0, r3, r2
 8003546:	600b      	str	r3, [r1, #0]
 8003548:	e9c2 3000 	strd	r3, r0, [r2]
 800354c:	4b32      	ldr	r3, [pc, #200]	; (8003618 <pvPortMalloc+0x110>)
 800354e:	6018      	str	r0, [r3, #0]
 8003550:	4b32      	ldr	r3, [pc, #200]	; (800361c <pvPortMalloc+0x114>)
 8003552:	6018      	str	r0, [r3, #0]
 8003554:	f04f 4300 	mov.w	r3, #2147483648	; 0x80000000
 8003558:	602b      	str	r3, [r5, #0]
 800355a:	682f      	ldr	r7, [r5, #0]
 800355c:	4227      	tst	r7, r4
 800355e:	d14e      	bne.n	80035fe <pvPortMalloc+0xf6>
 8003560:	2c00      	cmp	r4, #0
 8003562:	d03f      	beq.n	80035e4 <pvPortMalloc+0xdc>
 8003564:	f104 0308 	add.w	r3, r4, #8
 8003568:	0758      	lsls	r0, r3, #29
 800356a:	bf1c      	itt	ne
 800356c:	f023 0307 	bicne.w	r3, r3, #7
 8003570:	3308      	addne	r3, #8
 8003572:	2b00      	cmp	r3, #0
 8003574:	d043      	beq.n	80035fe <pvPortMalloc+0xf6>
 8003576:	4a29      	ldr	r2, [pc, #164]	; (800361c <pvPortMalloc+0x114>)
 8003578:	6816      	ldr	r6, [r2, #0]
 800357a:	429e      	cmp	r6, r3
 800357c:	4690      	mov	r8, r2
 800357e:	d33e      	bcc.n	80035fe <pvPortMalloc+0xf6>
 8003580:	4a24      	ldr	r2, [pc, #144]	; (8003614 <pvPortMalloc+0x10c>)
 8003582:	6815      	ldr	r5, [r2, #0]
 8003584:	6868      	ldr	r0, [r5, #4]
 8003586:	4298      	cmp	r0, r3
 8003588:	d201      	bcs.n	800358e <pvPortMalloc+0x86>
 800358a:	682c      	ldr	r4, [r5, #0]
 800358c:	b9a4      	cbnz	r4, 80035b8 <pvPortMalloc+0xb0>
 800358e:	6809      	ldr	r1, [r1, #0]
 8003590:	42a9      	cmp	r1, r5
 8003592:	d034      	beq.n	80035fe <pvPortMalloc+0xf6>
 8003594:	6829      	ldr	r1, [r5, #0]
 8003596:	6814      	ldr	r4, [r2, #0]
 8003598:	6011      	str	r1, [r2, #0]
 800359a:	1ac2      	subs	r2, r0, r3
 800359c:	2a10      	cmp	r2, #16
 800359e:	d912      	bls.n	80035c6 <pvPortMalloc+0xbe>
 80035a0:	18e8      	adds	r0, r5, r3
 80035a2:	0741      	lsls	r1, r0, #29
 80035a4:	d00b      	beq.n	80035be <pvPortMalloc+0xb6>
 80035a6:	f04f 0350 	mov.w	r3, #80	; 0x50
 80035aa:	f383 8811 	msr	BASEPRI, r3
 80035ae:	f3bf 8f6f 	isb	sy
 80035b2:	f3bf 8f4f 	dsb	sy
 80035b6:	e7fe      	b.n	80035b6 <pvPortMalloc+0xae>
 80035b8:	462a      	mov	r2, r5
 80035ba:	4625      	mov	r5, r4
 80035bc:	e7e2      	b.n	8003584 <pvPortMalloc+0x7c>
 80035be:	6042      	str	r2, [r0, #4]
 80035c0:	606b      	str	r3, [r5, #4]
 80035c2:	f7ff ff7d 	bl	80034c0 <prvInsertBlockIntoFreeList>
 80035c6:	4914      	ldr	r1, [pc, #80]	; (8003618 <pvPortMalloc+0x110>)
 80035c8:	686b      	ldr	r3, [r5, #4]
 80035ca:	6808      	ldr	r0, [r1, #0]
 80035cc:	1af6      	subs	r6, r6, r3
 80035ce:	431f      	orrs	r7, r3
 80035d0:	4286      	cmp	r6, r0
 80035d2:	f04f 0300 	mov.w	r3, #0
 80035d6:	f8c8 6000 	str.w	r6, [r8]
 80035da:	bf38      	it	cc
 80035dc:	600e      	strcc	r6, [r1, #0]
 80035de:	3408      	adds	r4, #8
 80035e0:	606f      	str	r7, [r5, #4]
 80035e2:	602b      	str	r3, [r5, #0]
 80035e4:	f7ff fd14 	bl	8003010 <xTaskResumeAll>
 80035e8:	0763      	lsls	r3, r4, #29
 80035ea:	d00a      	beq.n	8003602 <pvPortMalloc+0xfa>
 80035ec:	f04f 0350 	mov.w	r3, #80	; 0x50
 80035f0:	f383 8811 	msr	BASEPRI, r3
 80035f4:	f3bf 8f6f 	isb	sy
 80035f8:	f3bf 8f4f 	dsb	sy
 80035fc:	e7fe      	b.n	80035fc <pvPortMalloc+0xf4>
 80035fe:	2400      	movs	r4, #0
 8003600:	e7f0      	b.n	80035e4 <pvPortMalloc+0xdc>
 8003602:	4620      	mov	r0, r4
 8003604:	e8bd 81f0 	ldmia.w	sp!, {r4, r5, r6, r7, r8, pc}
 8003608:	20000438 	.word	0x20000438
 800360c:	2000403c 	.word	0x2000403c
 8003610:	2000043c 	.word	0x2000043c
 8003614:	20004048 	.word	0x20004048
 8003618:	20004044 	.word	0x20004044
 800361c:	20004040 	.word	0x20004040

08003620 <vPortFree>:
 8003620:	b510      	push	{r4, lr}
 8003622:	4604      	mov	r4, r0
 8003624:	b370      	cbz	r0, 8003684 <vPortFree+0x64>
 8003626:	4a18      	ldr	r2, [pc, #96]	; (8003688 <vPortFree+0x68>)
 8003628:	f850 3c04 	ldr.w	r3, [r0, #-4]
 800362c:	6812      	ldr	r2, [r2, #0]
 800362e:	4213      	tst	r3, r2
 8003630:	d108      	bne.n	8003644 <vPortFree+0x24>
 8003632:	f04f 0350 	mov.w	r3, #80	; 0x50
 8003636:	f383 8811 	msr	BASEPRI, r3
 800363a:	f3bf 8f6f 	isb	sy
 800363e:	f3bf 8f4f 	dsb	sy
 8003642:	e7fe      	b.n	8003642 <vPortFree+0x22>
 8003644:	f850 1c08 	ldr.w	r1, [r0, #-8]
 8003648:	b141      	cbz	r1, 800365c <vPortFree+0x3c>
 800364a:	f04f 0350 	mov.w	r3, #80	; 0x50
 800364e:	f383 8811 	msr	BASEPRI, r3
 8003652:	f3bf 8f6f 	isb	sy
 8003656:	f3bf 8f4f 	dsb	sy
 800365a:	e7fe      	b.n	800365a <vPortFree+0x3a>
 800365c:	ea23 0302 	bic.w	r3, r3, r2
 8003660:	f840 3c04 	str.w	r3, [r0, #-4]
 8003664:	f7ff fc3a 	bl	8002edc <vTaskSuspendAll>
 8003668:	4a08      	ldr	r2, [pc, #32]	; (800368c <vPortFree+0x6c>)
 800366a:	f854 3c04 	ldr.w	r3, [r4, #-4]
 800366e:	6811      	ldr	r1, [r2, #0]
 8003670:	f1a4 0008 	sub.w	r0, r4, #8
 8003674:	440b      	add	r3, r1
 8003676:	6013      	str	r3, [r2, #0]
 8003678:	f7ff ff22 	bl	80034c0 <prvInsertBlockIntoFreeList>
 800367c:	e8bd 4010 	ldmia.w	sp!, {r4, lr}
 8003680:	f7ff bcc6 	b.w	8003010 <xTaskResumeAll>
 8003684:	bd10      	pop	{r4, pc}
 8003686:	bf00      	nop
 8003688:	2000403c 	.word	0x2000403c
 800368c:	20004040 	.word	0x20004040

08003690 <__errno>:
 8003690:	4b01      	ldr	r3, [pc, #4]	; (8003698 <__errno+0x8>)
 8003692:	6818      	ldr	r0, [r3, #0]
 8003694:	4770      	bx	lr
 8003696:	bf00      	nop
 8003698:	20000010 	.word	0x20000010

0800369c <__libc_init_array>:
 800369c:	b570      	push	{r4, r5, r6, lr}
 800369e:	4e0d      	ldr	r6, [pc, #52]	; (80036d4 <__libc_init_array+0x38>)
 80036a0:	4c0d      	ldr	r4, [pc, #52]	; (80036d8 <__libc_init_array+0x3c>)
 80036a2:	1ba4      	subs	r4, r4, r6
 80036a4:	10a4      	asrs	r4, r4, #2
 80036a6:	2500      	movs	r5, #0
 80036a8:	42a5      	cmp	r5, r4
 80036aa:	d109      	bne.n	80036c0 <__libc_init_array+0x24>
 80036ac:	4e0b      	ldr	r6, [pc, #44]	; (80036dc <__libc_init_array+0x40>)
 80036ae:	4c0c      	ldr	r4, [pc, #48]	; (80036e0 <__libc_init_array+0x44>)
 80036b0:	f000 ff68 	bl	8004584 <_init>
 80036b4:	1ba4      	subs	r4, r4, r6
 80036b6:	10a4      	asrs	r4, r4, #2
 80036b8:	2500      	movs	r5, #0
 80036ba:	42a5      	cmp	r5, r4
 80036bc:	d105      	bne.n	80036ca <__libc_init_array+0x2e>
 80036be:	bd70      	pop	{r4, r5, r6, pc}
 80036c0:	f856 3025 	ldr.w	r3, [r6, r5, lsl #2]
 80036c4:	4798      	blx	r3
 80036c6:	3501      	adds	r5, #1
 80036c8:	e7ee      	b.n	80036a8 <__libc_init_array+0xc>
 80036ca:	f856 3025 	ldr.w	r3, [r6, r5, lsl #2]
 80036ce:	4798      	blx	r3
 80036d0:	3501      	adds	r5, #1
 80036d2:	e7f2      	b.n	80036ba <__libc_init_array+0x1e>
 80036d4:	080047c8 	.word	0x080047c8
 80036d8:	080047c8 	.word	0x080047c8
 80036dc:	080047c8 	.word	0x080047c8
 80036e0:	080047cc 	.word	0x080047cc

080036e4 <memset>:
 80036e4:	4402      	add	r2, r0
 80036e6:	4603      	mov	r3, r0
 80036e8:	4293      	cmp	r3, r2
 80036ea:	d100      	bne.n	80036ee <memset+0xa>
 80036ec:	4770      	bx	lr
 80036ee:	f803 1b01 	strb.w	r1, [r3], #1
 80036f2:	e7f9      	b.n	80036e8 <memset+0x4>

080036f4 <iprintf>:
 80036f4:	b40f      	push	{r0, r1, r2, r3}
 80036f6:	4b0a      	ldr	r3, [pc, #40]	; (8003720 <iprintf+0x2c>)
 80036f8:	b513      	push	{r0, r1, r4, lr}
 80036fa:	681c      	ldr	r4, [r3, #0]
 80036fc:	b124      	cbz	r4, 8003708 <iprintf+0x14>
 80036fe:	69a3      	ldr	r3, [r4, #24]
 8003700:	b913      	cbnz	r3, 8003708 <iprintf+0x14>
 8003702:	4620      	mov	r0, r4
 8003704:	f000 fa22 	bl	8003b4c <__sinit>
 8003708:	ab05      	add	r3, sp, #20
 800370a:	9a04      	ldr	r2, [sp, #16]
 800370c:	68a1      	ldr	r1, [r4, #8]
 800370e:	9301      	str	r3, [sp, #4]
 8003710:	4620      	mov	r0, r4
 8003712:	f000 fbdb 	bl	8003ecc <_vfiprintf_r>
 8003716:	b002      	add	sp, #8
 8003718:	e8bd 4010 	ldmia.w	sp!, {r4, lr}
 800371c:	b004      	add	sp, #16
 800371e:	4770      	bx	lr
 8003720:	20000010 	.word	0x20000010

08003724 <_puts_r>:
 8003724:	b570      	push	{r4, r5, r6, lr}
 8003726:	460e      	mov	r6, r1
 8003728:	4605      	mov	r5, r0
 800372a:	b118      	cbz	r0, 8003734 <_puts_r+0x10>
 800372c:	6983      	ldr	r3, [r0, #24]
 800372e:	b90b      	cbnz	r3, 8003734 <_puts_r+0x10>
 8003730:	f000 fa0c 	bl	8003b4c <__sinit>
 8003734:	69ab      	ldr	r3, [r5, #24]
 8003736:	68ac      	ldr	r4, [r5, #8]
 8003738:	b913      	cbnz	r3, 8003740 <_puts_r+0x1c>
 800373a:	4628      	mov	r0, r5
 800373c:	f000 fa06 	bl	8003b4c <__sinit>
 8003740:	4b23      	ldr	r3, [pc, #140]	; (80037d0 <_puts_r+0xac>)
 8003742:	429c      	cmp	r4, r3
 8003744:	d117      	bne.n	8003776 <_puts_r+0x52>
 8003746:	686c      	ldr	r4, [r5, #4]
 8003748:	89a3      	ldrh	r3, [r4, #12]
 800374a:	071b      	lsls	r3, r3, #28
 800374c:	d51d      	bpl.n	800378a <_puts_r+0x66>
 800374e:	6923      	ldr	r3, [r4, #16]
 8003750:	b1db      	cbz	r3, 800378a <_puts_r+0x66>
 8003752:	3e01      	subs	r6, #1
 8003754:	68a3      	ldr	r3, [r4, #8]
 8003756:	f816 1f01 	ldrb.w	r1, [r6, #1]!
 800375a:	3b01      	subs	r3, #1
 800375c:	60a3      	str	r3, [r4, #8]
 800375e:	b9e9      	cbnz	r1, 800379c <_puts_r+0x78>
 8003760:	2b00      	cmp	r3, #0
 8003762:	da2e      	bge.n	80037c2 <_puts_r+0x9e>
 8003764:	4622      	mov	r2, r4
 8003766:	210a      	movs	r1, #10
 8003768:	4628      	mov	r0, r5
 800376a:	f000 f83f 	bl	80037ec <__swbuf_r>
 800376e:	3001      	adds	r0, #1
 8003770:	d011      	beq.n	8003796 <_puts_r+0x72>
 8003772:	200a      	movs	r0, #10
 8003774:	e011      	b.n	800379a <_puts_r+0x76>
 8003776:	4b17      	ldr	r3, [pc, #92]	; (80037d4 <_puts_r+0xb0>)
 8003778:	429c      	cmp	r4, r3
 800377a:	d101      	bne.n	8003780 <_puts_r+0x5c>
 800377c:	68ac      	ldr	r4, [r5, #8]
 800377e:	e7e3      	b.n	8003748 <_puts_r+0x24>
 8003780:	4b15      	ldr	r3, [pc, #84]	; (80037d8 <_puts_r+0xb4>)
 8003782:	429c      	cmp	r4, r3
 8003784:	bf08      	it	eq
 8003786:	68ec      	ldreq	r4, [r5, #12]
 8003788:	e7de      	b.n	8003748 <_puts_r+0x24>
 800378a:	4621      	mov	r1, r4
 800378c:	4628      	mov	r0, r5
 800378e:	f000 f87f 	bl	8003890 <__swsetup_r>
 8003792:	2800      	cmp	r0, #0
 8003794:	d0dd      	beq.n	8003752 <_puts_r+0x2e>
 8003796:	f04f 30ff 	mov.w	r0, #4294967295
 800379a:	bd70      	pop	{r4, r5, r6, pc}
 800379c:	2b00      	cmp	r3, #0
 800379e:	da04      	bge.n	80037aa <_puts_r+0x86>
 80037a0:	69a2      	ldr	r2, [r4, #24]
 80037a2:	429a      	cmp	r2, r3
 80037a4:	dc06      	bgt.n	80037b4 <_puts_r+0x90>
 80037a6:	290a      	cmp	r1, #10
 80037a8:	d004      	beq.n	80037b4 <_puts_r+0x90>
 80037aa:	6823      	ldr	r3, [r4, #0]
 80037ac:	1c5a      	adds	r2, r3, #1
 80037ae:	6022      	str	r2, [r4, #0]
 80037b0:	7019      	strb	r1, [r3, #0]
 80037b2:	e7cf      	b.n	8003754 <_puts_r+0x30>
 80037b4:	4622      	mov	r2, r4
 80037b6:	4628      	mov	r0, r5
 80037b8:	f000 f818 	bl	80037ec <__swbuf_r>
 80037bc:	3001      	adds	r0, #1
 80037be:	d1c9      	bne.n	8003754 <_puts_r+0x30>
 80037c0:	e7e9      	b.n	8003796 <_puts_r+0x72>
 80037c2:	6823      	ldr	r3, [r4, #0]
 80037c4:	200a      	movs	r0, #10
 80037c6:	1c5a      	adds	r2, r3, #1
 80037c8:	6022      	str	r2, [r4, #0]
 80037ca:	7018      	strb	r0, [r3, #0]
 80037cc:	e7e5      	b.n	800379a <_puts_r+0x76>
 80037ce:	bf00      	nop
 80037d0:	0800474c 	.word	0x0800474c
 80037d4:	0800476c 	.word	0x0800476c
 80037d8:	0800472c 	.word	0x0800472c

080037dc <puts>:
 80037dc:	4b02      	ldr	r3, [pc, #8]	; (80037e8 <puts+0xc>)
 80037de:	4601      	mov	r1, r0
 80037e0:	6818      	ldr	r0, [r3, #0]
 80037e2:	f7ff bf9f 	b.w	8003724 <_puts_r>
 80037e6:	bf00      	nop
 80037e8:	20000010 	.word	0x20000010

080037ec <__swbuf_r>:
 80037ec:	b5f8      	push	{r3, r4, r5, r6, r7, lr}
 80037ee:	460e      	mov	r6, r1
 80037f0:	4614      	mov	r4, r2
 80037f2:	4605      	mov	r5, r0
 80037f4:	b118      	cbz	r0, 80037fe <__swbuf_r+0x12>
 80037f6:	6983      	ldr	r3, [r0, #24]
 80037f8:	b90b      	cbnz	r3, 80037fe <__swbuf_r+0x12>
 80037fa:	f000 f9a7 	bl	8003b4c <__sinit>
 80037fe:	4b21      	ldr	r3, [pc, #132]	; (8003884 <__swbuf_r+0x98>)
 8003800:	429c      	cmp	r4, r3
 8003802:	d12a      	bne.n	800385a <__swbuf_r+0x6e>
 8003804:	686c      	ldr	r4, [r5, #4]
 8003806:	69a3      	ldr	r3, [r4, #24]
 8003808:	60a3      	str	r3, [r4, #8]
 800380a:	89a3      	ldrh	r3, [r4, #12]
 800380c:	071a      	lsls	r2, r3, #28
 800380e:	d52e      	bpl.n	800386e <__swbuf_r+0x82>
 8003810:	6923      	ldr	r3, [r4, #16]
 8003812:	b363      	cbz	r3, 800386e <__swbuf_r+0x82>
 8003814:	6923      	ldr	r3, [r4, #16]
 8003816:	6820      	ldr	r0, [r4, #0]
 8003818:	1ac0      	subs	r0, r0, r3
 800381a:	6963      	ldr	r3, [r4, #20]
 800381c:	b2f6      	uxtb	r6, r6
 800381e:	4283      	cmp	r3, r0
 8003820:	4637      	mov	r7, r6
 8003822:	dc04      	bgt.n	800382e <__swbuf_r+0x42>
 8003824:	4621      	mov	r1, r4
 8003826:	4628      	mov	r0, r5
 8003828:	f000 f926 	bl	8003a78 <_fflush_r>
 800382c:	bb28      	cbnz	r0, 800387a <__swbuf_r+0x8e>
 800382e:	68a3      	ldr	r3, [r4, #8]
 8003830:	3b01      	subs	r3, #1
 8003832:	60a3      	str	r3, [r4, #8]
 8003834:	6823      	ldr	r3, [r4, #0]
 8003836:	1c5a      	adds	r2, r3, #1
 8003838:	6022      	str	r2, [r4, #0]
 800383a:	701e      	strb	r6, [r3, #0]
 800383c:	6963      	ldr	r3, [r4, #20]
 800383e:	3001      	adds	r0, #1
 8003840:	4283      	cmp	r3, r0
 8003842:	d004      	beq.n	800384e <__swbuf_r+0x62>
 8003844:	89a3      	ldrh	r3, [r4, #12]
 8003846:	07db      	lsls	r3, r3, #31
 8003848:	d519      	bpl.n	800387e <__swbuf_r+0x92>
 800384a:	2e0a      	cmp	r6, #10
 800384c:	d117      	bne.n	800387e <__swbuf_r+0x92>
 800384e:	4621      	mov	r1, r4
 8003850:	4628      	mov	r0, r5
 8003852:	f000 f911 	bl	8003a78 <_fflush_r>
 8003856:	b190      	cbz	r0, 800387e <__swbuf_r+0x92>
 8003858:	e00f      	b.n	800387a <__swbuf_r+0x8e>
 800385a:	4b0b      	ldr	r3, [pc, #44]	; (8003888 <__swbuf_r+0x9c>)
 800385c:	429c      	cmp	r4, r3
 800385e:	d101      	bne.n	8003864 <__swbuf_r+0x78>
 8003860:	68ac      	ldr	r4, [r5, #8]
 8003862:	e7d0      	b.n	8003806 <__swbuf_r+0x1a>
 8003864:	4b09      	ldr	r3, [pc, #36]	; (800388c <__swbuf_r+0xa0>)
 8003866:	429c      	cmp	r4, r3
 8003868:	bf08      	it	eq
 800386a:	68ec      	ldreq	r4, [r5, #12]
 800386c:	e7cb      	b.n	8003806 <__swbuf_r+0x1a>
 800386e:	4621      	mov	r1, r4
 8003870:	4628      	mov	r0, r5
 8003872:	f000 f80d 	bl	8003890 <__swsetup_r>
 8003876:	2800      	cmp	r0, #0
 8003878:	d0cc      	beq.n	8003814 <__swbuf_r+0x28>
 800387a:	f04f 37ff 	mov.w	r7, #4294967295
 800387e:	4638      	mov	r0, r7
 8003880:	bdf8      	pop	{r3, r4, r5, r6, r7, pc}
 8003882:	bf00      	nop
 8003884:	0800474c 	.word	0x0800474c
 8003888:	0800476c 	.word	0x0800476c
 800388c:	0800472c 	.word	0x0800472c

08003890 <__swsetup_r>:
 8003890:	4b32      	ldr	r3, [pc, #200]	; (800395c <__swsetup_r+0xcc>)
 8003892:	b570      	push	{r4, r5, r6, lr}
 8003894:	681d      	ldr	r5, [r3, #0]
 8003896:	4606      	mov	r6, r0
 8003898:	460c      	mov	r4, r1
 800389a:	b125      	cbz	r5, 80038a6 <__swsetup_r+0x16>
 800389c:	69ab      	ldr	r3, [r5, #24]
 800389e:	b913      	cbnz	r3, 80038a6 <__swsetup_r+0x16>
 80038a0:	4628      	mov	r0, r5
 80038a2:	f000 f953 	bl	8003b4c <__sinit>
 80038a6:	4b2e      	ldr	r3, [pc, #184]	; (8003960 <__swsetup_r+0xd0>)
 80038a8:	429c      	cmp	r4, r3
 80038aa:	d10f      	bne.n	80038cc <__swsetup_r+0x3c>
 80038ac:	686c      	ldr	r4, [r5, #4]
 80038ae:	f9b4 300c 	ldrsh.w	r3, [r4, #12]
 80038b2:	b29a      	uxth	r2, r3
 80038b4:	0715      	lsls	r5, r2, #28
 80038b6:	d42c      	bmi.n	8003912 <__swsetup_r+0x82>
 80038b8:	06d0      	lsls	r0, r2, #27
 80038ba:	d411      	bmi.n	80038e0 <__swsetup_r+0x50>
 80038bc:	2209      	movs	r2, #9
 80038be:	6032      	str	r2, [r6, #0]
 80038c0:	f043 0340 	orr.w	r3, r3, #64	; 0x40
 80038c4:	81a3      	strh	r3, [r4, #12]
 80038c6:	f04f 30ff 	mov.w	r0, #4294967295
 80038ca:	e03e      	b.n	800394a <__swsetup_r+0xba>
 80038cc:	4b25      	ldr	r3, [pc, #148]	; (8003964 <__swsetup_r+0xd4>)
 80038ce:	429c      	cmp	r4, r3
 80038d0:	d101      	bne.n	80038d6 <__swsetup_r+0x46>
 80038d2:	68ac      	ldr	r4, [r5, #8]
 80038d4:	e7eb      	b.n	80038ae <__swsetup_r+0x1e>
 80038d6:	4b24      	ldr	r3, [pc, #144]	; (8003968 <__swsetup_r+0xd8>)
 80038d8:	429c      	cmp	r4, r3
 80038da:	bf08      	it	eq
 80038dc:	68ec      	ldreq	r4, [r5, #12]
 80038de:	e7e6      	b.n	80038ae <__swsetup_r+0x1e>
 80038e0:	0751      	lsls	r1, r2, #29
 80038e2:	d512      	bpl.n	800390a <__swsetup_r+0x7a>
 80038e4:	6b61      	ldr	r1, [r4, #52]	; 0x34
 80038e6:	b141      	cbz	r1, 80038fa <__swsetup_r+0x6a>
 80038e8:	f104 0344 	add.w	r3, r4, #68	; 0x44
 80038ec:	4299      	cmp	r1, r3
 80038ee:	d002      	beq.n	80038f6 <__swsetup_r+0x66>
 80038f0:	4630      	mov	r0, r6
 80038f2:	f000 fa19 	bl	8003d28 <_free_r>
 80038f6:	2300      	movs	r3, #0
 80038f8:	6363      	str	r3, [r4, #52]	; 0x34
 80038fa:	89a3      	ldrh	r3, [r4, #12]
 80038fc:	f023 0324 	bic.w	r3, r3, #36	; 0x24
 8003900:	81a3      	strh	r3, [r4, #12]
 8003902:	2300      	movs	r3, #0
 8003904:	6063      	str	r3, [r4, #4]
 8003906:	6923      	ldr	r3, [r4, #16]
 8003908:	6023      	str	r3, [r4, #0]
 800390a:	89a3      	ldrh	r3, [r4, #12]
 800390c:	f043 0308 	orr.w	r3, r3, #8
 8003910:	81a3      	strh	r3, [r4, #12]
 8003912:	6923      	ldr	r3, [r4, #16]
 8003914:	b94b      	cbnz	r3, 800392a <__swsetup_r+0x9a>
 8003916:	89a3      	ldrh	r3, [r4, #12]
 8003918:	f403 7320 	and.w	r3, r3, #640	; 0x280
 800391c:	f5b3 7f00 	cmp.w	r3, #512	; 0x200
 8003920:	d003      	beq.n	800392a <__swsetup_r+0x9a>
 8003922:	4621      	mov	r1, r4
 8003924:	4630      	mov	r0, r6
 8003926:	f000 f9bf 	bl	8003ca8 <__smakebuf_r>
 800392a:	89a2      	ldrh	r2, [r4, #12]
 800392c:	f012 0301 	ands.w	r3, r2, #1
 8003930:	d00c      	beq.n	800394c <__swsetup_r+0xbc>
 8003932:	2300      	movs	r3, #0
 8003934:	60a3      	str	r3, [r4, #8]
 8003936:	6963      	ldr	r3, [r4, #20]
 8003938:	425b      	negs	r3, r3
 800393a:	61a3      	str	r3, [r4, #24]
 800393c:	6923      	ldr	r3, [r4, #16]
 800393e:	b953      	cbnz	r3, 8003956 <__swsetup_r+0xc6>
 8003940:	f9b4 300c 	ldrsh.w	r3, [r4, #12]
 8003944:	f013 0080 	ands.w	r0, r3, #128	; 0x80
 8003948:	d1ba      	bne.n	80038c0 <__swsetup_r+0x30>
 800394a:	bd70      	pop	{r4, r5, r6, pc}
 800394c:	0792      	lsls	r2, r2, #30
 800394e:	bf58      	it	pl
 8003950:	6963      	ldrpl	r3, [r4, #20]
 8003952:	60a3      	str	r3, [r4, #8]
 8003954:	e7f2      	b.n	800393c <__swsetup_r+0xac>
 8003956:	2000      	movs	r0, #0
 8003958:	e7f7      	b.n	800394a <__swsetup_r+0xba>
 800395a:	bf00      	nop
 800395c:	20000010 	.word	0x20000010
 8003960:	0800474c 	.word	0x0800474c
 8003964:	0800476c 	.word	0x0800476c
 8003968:	0800472c 	.word	0x0800472c

0800396c <__sflush_r>:
 800396c:	898a      	ldrh	r2, [r1, #12]
 800396e:	e92d 41f0 	stmdb	sp!, {r4, r5, r6, r7, r8, lr}
 8003972:	4605      	mov	r5, r0
 8003974:	0710      	lsls	r0, r2, #28
 8003976:	460c      	mov	r4, r1
 8003978:	d458      	bmi.n	8003a2c <__sflush_r+0xc0>
 800397a:	684b      	ldr	r3, [r1, #4]
 800397c:	2b00      	cmp	r3, #0
 800397e:	dc05      	bgt.n	800398c <__sflush_r+0x20>
 8003980:	6c0b      	ldr	r3, [r1, #64]	; 0x40
 8003982:	2b00      	cmp	r3, #0
 8003984:	dc02      	bgt.n	800398c <__sflush_r+0x20>
 8003986:	2000      	movs	r0, #0
 8003988:	e8bd 81f0 	ldmia.w	sp!, {r4, r5, r6, r7, r8, pc}
 800398c:	6ae6      	ldr	r6, [r4, #44]	; 0x2c
 800398e:	2e00      	cmp	r6, #0
 8003990:	d0f9      	beq.n	8003986 <__sflush_r+0x1a>
 8003992:	2300      	movs	r3, #0
 8003994:	f412 5280 	ands.w	r2, r2, #4096	; 0x1000
 8003998:	682f      	ldr	r7, [r5, #0]
 800399a:	6a21      	ldr	r1, [r4, #32]
 800399c:	602b      	str	r3, [r5, #0]
 800399e:	d032      	beq.n	8003a06 <__sflush_r+0x9a>
 80039a0:	6d60      	ldr	r0, [r4, #84]	; 0x54
 80039a2:	89a3      	ldrh	r3, [r4, #12]
 80039a4:	075a      	lsls	r2, r3, #29
 80039a6:	d505      	bpl.n	80039b4 <__sflush_r+0x48>
 80039a8:	6863      	ldr	r3, [r4, #4]
 80039aa:	1ac0      	subs	r0, r0, r3
 80039ac:	6b63      	ldr	r3, [r4, #52]	; 0x34
 80039ae:	b10b      	cbz	r3, 80039b4 <__sflush_r+0x48>
 80039b0:	6c23      	ldr	r3, [r4, #64]	; 0x40
 80039b2:	1ac0      	subs	r0, r0, r3
 80039b4:	2300      	movs	r3, #0
 80039b6:	4602      	mov	r2, r0
 80039b8:	6ae6      	ldr	r6, [r4, #44]	; 0x2c
 80039ba:	6a21      	ldr	r1, [r4, #32]
 80039bc:	4628      	mov	r0, r5
 80039be:	47b0      	blx	r6
 80039c0:	1c43      	adds	r3, r0, #1
 80039c2:	89a3      	ldrh	r3, [r4, #12]
 80039c4:	d106      	bne.n	80039d4 <__sflush_r+0x68>
 80039c6:	6829      	ldr	r1, [r5, #0]
 80039c8:	291d      	cmp	r1, #29
 80039ca:	d848      	bhi.n	8003a5e <__sflush_r+0xf2>
 80039cc:	4a29      	ldr	r2, [pc, #164]	; (8003a74 <__sflush_r+0x108>)
 80039ce:	40ca      	lsrs	r2, r1
 80039d0:	07d6      	lsls	r6, r2, #31
 80039d2:	d544      	bpl.n	8003a5e <__sflush_r+0xf2>
 80039d4:	2200      	movs	r2, #0
 80039d6:	6062      	str	r2, [r4, #4]
 80039d8:	04d9      	lsls	r1, r3, #19
 80039da:	6922      	ldr	r2, [r4, #16]
 80039dc:	6022      	str	r2, [r4, #0]
 80039de:	d504      	bpl.n	80039ea <__sflush_r+0x7e>
 80039e0:	1c42      	adds	r2, r0, #1
 80039e2:	d101      	bne.n	80039e8 <__sflush_r+0x7c>
 80039e4:	682b      	ldr	r3, [r5, #0]
 80039e6:	b903      	cbnz	r3, 80039ea <__sflush_r+0x7e>
 80039e8:	6560      	str	r0, [r4, #84]	; 0x54
 80039ea:	6b61      	ldr	r1, [r4, #52]	; 0x34
 80039ec:	602f      	str	r7, [r5, #0]
 80039ee:	2900      	cmp	r1, #0
 80039f0:	d0c9      	beq.n	8003986 <__sflush_r+0x1a>
 80039f2:	f104 0344 	add.w	r3, r4, #68	; 0x44
 80039f6:	4299      	cmp	r1, r3
 80039f8:	d002      	beq.n	8003a00 <__sflush_r+0x94>
 80039fa:	4628      	mov	r0, r5
 80039fc:	f000 f994 	bl	8003d28 <_free_r>
 8003a00:	2000      	movs	r0, #0
 8003a02:	6360      	str	r0, [r4, #52]	; 0x34
 8003a04:	e7c0      	b.n	8003988 <__sflush_r+0x1c>
 8003a06:	2301      	movs	r3, #1
 8003a08:	4628      	mov	r0, r5
 8003a0a:	47b0      	blx	r6
 8003a0c:	1c41      	adds	r1, r0, #1
 8003a0e:	d1c8      	bne.n	80039a2 <__sflush_r+0x36>
 8003a10:	682b      	ldr	r3, [r5, #0]
 8003a12:	2b00      	cmp	r3, #0
 8003a14:	d0c5      	beq.n	80039a2 <__sflush_r+0x36>
 8003a16:	2b1d      	cmp	r3, #29
 8003a18:	d001      	beq.n	8003a1e <__sflush_r+0xb2>
 8003a1a:	2b16      	cmp	r3, #22
 8003a1c:	d101      	bne.n	8003a22 <__sflush_r+0xb6>
 8003a1e:	602f      	str	r7, [r5, #0]
 8003a20:	e7b1      	b.n	8003986 <__sflush_r+0x1a>
 8003a22:	89a3      	ldrh	r3, [r4, #12]
 8003a24:	f043 0340 	orr.w	r3, r3, #64	; 0x40
 8003a28:	81a3      	strh	r3, [r4, #12]
 8003a2a:	e7ad      	b.n	8003988 <__sflush_r+0x1c>
 8003a2c:	690f      	ldr	r7, [r1, #16]
 8003a2e:	2f00      	cmp	r7, #0
 8003a30:	d0a9      	beq.n	8003986 <__sflush_r+0x1a>
 8003a32:	0793      	lsls	r3, r2, #30
 8003a34:	680e      	ldr	r6, [r1, #0]
 8003a36:	bf08      	it	eq
 8003a38:	694b      	ldreq	r3, [r1, #20]
 8003a3a:	600f      	str	r7, [r1, #0]
 8003a3c:	bf18      	it	ne
 8003a3e:	2300      	movne	r3, #0
 8003a40:	eba6 0807 	sub.w	r8, r6, r7
 8003a44:	608b      	str	r3, [r1, #8]
 8003a46:	f1b8 0f00 	cmp.w	r8, #0
 8003a4a:	dd9c      	ble.n	8003986 <__sflush_r+0x1a>
 8003a4c:	4643      	mov	r3, r8
 8003a4e:	463a      	mov	r2, r7
 8003a50:	6a21      	ldr	r1, [r4, #32]
 8003a52:	6aa6      	ldr	r6, [r4, #40]	; 0x28
 8003a54:	4628      	mov	r0, r5
 8003a56:	47b0      	blx	r6
 8003a58:	2800      	cmp	r0, #0
 8003a5a:	dc06      	bgt.n	8003a6a <__sflush_r+0xfe>
 8003a5c:	89a3      	ldrh	r3, [r4, #12]
 8003a5e:	f043 0340 	orr.w	r3, r3, #64	; 0x40
 8003a62:	81a3      	strh	r3, [r4, #12]
 8003a64:	f04f 30ff 	mov.w	r0, #4294967295
 8003a68:	e78e      	b.n	8003988 <__sflush_r+0x1c>
 8003a6a:	4407      	add	r7, r0
 8003a6c:	eba8 0800 	sub.w	r8, r8, r0
 8003a70:	e7e9      	b.n	8003a46 <__sflush_r+0xda>
 8003a72:	bf00      	nop
 8003a74:	20400001 	.word	0x20400001

08003a78 <_fflush_r>:
 8003a78:	b538      	push	{r3, r4, r5, lr}
 8003a7a:	690b      	ldr	r3, [r1, #16]
 8003a7c:	4605      	mov	r5, r0
 8003a7e:	460c      	mov	r4, r1
 8003a80:	b1db      	cbz	r3, 8003aba <_fflush_r+0x42>
 8003a82:	b118      	cbz	r0, 8003a8c <_fflush_r+0x14>
 8003a84:	6983      	ldr	r3, [r0, #24]
 8003a86:	b90b      	cbnz	r3, 8003a8c <_fflush_r+0x14>
 8003a88:	f000 f860 	bl	8003b4c <__sinit>
 8003a8c:	4b0c      	ldr	r3, [pc, #48]	; (8003ac0 <_fflush_r+0x48>)
 8003a8e:	429c      	cmp	r4, r3
 8003a90:	d109      	bne.n	8003aa6 <_fflush_r+0x2e>
 8003a92:	686c      	ldr	r4, [r5, #4]
 8003a94:	f9b4 300c 	ldrsh.w	r3, [r4, #12]
 8003a98:	b17b      	cbz	r3, 8003aba <_fflush_r+0x42>
 8003a9a:	4621      	mov	r1, r4
 8003a9c:	4628      	mov	r0, r5
 8003a9e:	e8bd 4038 	ldmia.w	sp!, {r3, r4, r5, lr}
 8003aa2:	f7ff bf63 	b.w	800396c <__sflush_r>
 8003aa6:	4b07      	ldr	r3, [pc, #28]	; (8003ac4 <_fflush_r+0x4c>)
 8003aa8:	429c      	cmp	r4, r3
 8003aaa:	d101      	bne.n	8003ab0 <_fflush_r+0x38>
 8003aac:	68ac      	ldr	r4, [r5, #8]
 8003aae:	e7f1      	b.n	8003a94 <_fflush_r+0x1c>
 8003ab0:	4b05      	ldr	r3, [pc, #20]	; (8003ac8 <_fflush_r+0x50>)
 8003ab2:	429c      	cmp	r4, r3
 8003ab4:	bf08      	it	eq
 8003ab6:	68ec      	ldreq	r4, [r5, #12]
 8003ab8:	e7ec      	b.n	8003a94 <_fflush_r+0x1c>
 8003aba:	2000      	movs	r0, #0
 8003abc:	bd38      	pop	{r3, r4, r5, pc}
 8003abe:	bf00      	nop
 8003ac0:	0800474c 	.word	0x0800474c
 8003ac4:	0800476c 	.word	0x0800476c
 8003ac8:	0800472c 	.word	0x0800472c

08003acc <std>:
 8003acc:	2300      	movs	r3, #0
 8003ace:	b510      	push	{r4, lr}
 8003ad0:	4604      	mov	r4, r0
 8003ad2:	e9c0 3300 	strd	r3, r3, [r0]
 8003ad6:	6083      	str	r3, [r0, #8]
 8003ad8:	8181      	strh	r1, [r0, #12]
 8003ada:	6643      	str	r3, [r0, #100]	; 0x64
 8003adc:	81c2      	strh	r2, [r0, #14]
 8003ade:	e9c0 3304 	strd	r3, r3, [r0, #16]
 8003ae2:	6183      	str	r3, [r0, #24]
 8003ae4:	4619      	mov	r1, r3
 8003ae6:	2208      	movs	r2, #8
 8003ae8:	305c      	adds	r0, #92	; 0x5c
 8003aea:	f7ff fdfb 	bl	80036e4 <memset>
 8003aee:	4b05      	ldr	r3, [pc, #20]	; (8003b04 <std+0x38>)
 8003af0:	6263      	str	r3, [r4, #36]	; 0x24
 8003af2:	4b05      	ldr	r3, [pc, #20]	; (8003b08 <std+0x3c>)
 8003af4:	62a3      	str	r3, [r4, #40]	; 0x28
 8003af6:	4b05      	ldr	r3, [pc, #20]	; (8003b0c <std+0x40>)
 8003af8:	62e3      	str	r3, [r4, #44]	; 0x2c
 8003afa:	4b05      	ldr	r3, [pc, #20]	; (8003b10 <std+0x44>)
 8003afc:	6224      	str	r4, [r4, #32]
 8003afe:	6323      	str	r3, [r4, #48]	; 0x30
 8003b00:	bd10      	pop	{r4, pc}
 8003b02:	bf00      	nop
 8003b04:	08004429 	.word	0x08004429
 8003b08:	0800444b 	.word	0x0800444b
 8003b0c:	08004483 	.word	0x08004483
 8003b10:	080044a7 	.word	0x080044a7

08003b14 <_cleanup_r>:
 8003b14:	4901      	ldr	r1, [pc, #4]	; (8003b1c <_cleanup_r+0x8>)
 8003b16:	f000 b885 	b.w	8003c24 <_fwalk_reent>
 8003b1a:	bf00      	nop
 8003b1c:	08003a79 	.word	0x08003a79

08003b20 <__sfmoreglue>:
 8003b20:	b570      	push	{r4, r5, r6, lr}
 8003b22:	1e4a      	subs	r2, r1, #1
 8003b24:	2568      	movs	r5, #104	; 0x68
 8003b26:	4355      	muls	r5, r2
 8003b28:	460e      	mov	r6, r1
 8003b2a:	f105 0174 	add.w	r1, r5, #116	; 0x74
 8003b2e:	f000 f949 	bl	8003dc4 <_malloc_r>
 8003b32:	4604      	mov	r4, r0
 8003b34:	b140      	cbz	r0, 8003b48 <__sfmoreglue+0x28>
 8003b36:	2100      	movs	r1, #0
 8003b38:	e9c0 1600 	strd	r1, r6, [r0]
 8003b3c:	300c      	adds	r0, #12
 8003b3e:	60a0      	str	r0, [r4, #8]
 8003b40:	f105 0268 	add.w	r2, r5, #104	; 0x68
 8003b44:	f7ff fdce 	bl	80036e4 <memset>
 8003b48:	4620      	mov	r0, r4
 8003b4a:	bd70      	pop	{r4, r5, r6, pc}

08003b4c <__sinit>:
 8003b4c:	6983      	ldr	r3, [r0, #24]
 8003b4e:	b510      	push	{r4, lr}
 8003b50:	4604      	mov	r4, r0
 8003b52:	bb33      	cbnz	r3, 8003ba2 <__sinit+0x56>
 8003b54:	e9c0 3312 	strd	r3, r3, [r0, #72]	; 0x48
 8003b58:	6503      	str	r3, [r0, #80]	; 0x50
 8003b5a:	4b12      	ldr	r3, [pc, #72]	; (8003ba4 <__sinit+0x58>)
 8003b5c:	4a12      	ldr	r2, [pc, #72]	; (8003ba8 <__sinit+0x5c>)
 8003b5e:	681b      	ldr	r3, [r3, #0]
 8003b60:	6282      	str	r2, [r0, #40]	; 0x28
 8003b62:	4298      	cmp	r0, r3
 8003b64:	bf04      	itt	eq
 8003b66:	2301      	moveq	r3, #1
 8003b68:	6183      	streq	r3, [r0, #24]
 8003b6a:	f000 f81f 	bl	8003bac <__sfp>
 8003b6e:	6060      	str	r0, [r4, #4]
 8003b70:	4620      	mov	r0, r4
 8003b72:	f000 f81b 	bl	8003bac <__sfp>
 8003b76:	60a0      	str	r0, [r4, #8]
 8003b78:	4620      	mov	r0, r4
 8003b7a:	f000 f817 	bl	8003bac <__sfp>
 8003b7e:	2200      	movs	r2, #0
 8003b80:	60e0      	str	r0, [r4, #12]
 8003b82:	2104      	movs	r1, #4
 8003b84:	6860      	ldr	r0, [r4, #4]
 8003b86:	f7ff ffa1 	bl	8003acc <std>
 8003b8a:	2201      	movs	r2, #1
 8003b8c:	2109      	movs	r1, #9
 8003b8e:	68a0      	ldr	r0, [r4, #8]
 8003b90:	f7ff ff9c 	bl	8003acc <std>
 8003b94:	2202      	movs	r2, #2
 8003b96:	2112      	movs	r1, #18
 8003b98:	68e0      	ldr	r0, [r4, #12]
 8003b9a:	f7ff ff97 	bl	8003acc <std>
 8003b9e:	2301      	movs	r3, #1
 8003ba0:	61a3      	str	r3, [r4, #24]
 8003ba2:	bd10      	pop	{r4, pc}
 8003ba4:	08004728 	.word	0x08004728
 8003ba8:	08003b15 	.word	0x08003b15

08003bac <__sfp>:
 8003bac:	b5f8      	push	{r3, r4, r5, r6, r7, lr}
 8003bae:	4b1b      	ldr	r3, [pc, #108]	; (8003c1c <__sfp+0x70>)
 8003bb0:	681e      	ldr	r6, [r3, #0]
 8003bb2:	69b3      	ldr	r3, [r6, #24]
 8003bb4:	4607      	mov	r7, r0
 8003bb6:	b913      	cbnz	r3, 8003bbe <__sfp+0x12>
 8003bb8:	4630      	mov	r0, r6
 8003bba:	f7ff ffc7 	bl	8003b4c <__sinit>
 8003bbe:	3648      	adds	r6, #72	; 0x48
 8003bc0:	e9d6 3401 	ldrd	r3, r4, [r6, #4]
 8003bc4:	3b01      	subs	r3, #1
 8003bc6:	d503      	bpl.n	8003bd0 <__sfp+0x24>
 8003bc8:	6833      	ldr	r3, [r6, #0]
 8003bca:	b133      	cbz	r3, 8003bda <__sfp+0x2e>
 8003bcc:	6836      	ldr	r6, [r6, #0]
 8003bce:	e7f7      	b.n	8003bc0 <__sfp+0x14>
 8003bd0:	f9b4 500c 	ldrsh.w	r5, [r4, #12]
 8003bd4:	b16d      	cbz	r5, 8003bf2 <__sfp+0x46>
 8003bd6:	3468      	adds	r4, #104	; 0x68
 8003bd8:	e7f4      	b.n	8003bc4 <__sfp+0x18>
 8003bda:	2104      	movs	r1, #4
 8003bdc:	4638      	mov	r0, r7
 8003bde:	f7ff ff9f 	bl	8003b20 <__sfmoreglue>
 8003be2:	6030      	str	r0, [r6, #0]
 8003be4:	2800      	cmp	r0, #0
 8003be6:	d1f1      	bne.n	8003bcc <__sfp+0x20>
 8003be8:	230c      	movs	r3, #12
 8003bea:	603b      	str	r3, [r7, #0]
 8003bec:	4604      	mov	r4, r0
 8003bee:	4620      	mov	r0, r4
 8003bf0:	bdf8      	pop	{r3, r4, r5, r6, r7, pc}
 8003bf2:	4b0b      	ldr	r3, [pc, #44]	; (8003c20 <__sfp+0x74>)
 8003bf4:	6665      	str	r5, [r4, #100]	; 0x64
 8003bf6:	e9c4 5500 	strd	r5, r5, [r4]
 8003bfa:	60a5      	str	r5, [r4, #8]
 8003bfc:	e9c4 3503 	strd	r3, r5, [r4, #12]
 8003c00:	e9c4 5505 	strd	r5, r5, [r4, #20]
 8003c04:	2208      	movs	r2, #8
 8003c06:	4629      	mov	r1, r5
 8003c08:	f104 005c 	add.w	r0, r4, #92	; 0x5c
 8003c0c:	f7ff fd6a 	bl	80036e4 <memset>
 8003c10:	e9c4 550d 	strd	r5, r5, [r4, #52]	; 0x34
 8003c14:	e9c4 5512 	strd	r5, r5, [r4, #72]	; 0x48
 8003c18:	e7e9      	b.n	8003bee <__sfp+0x42>
 8003c1a:	bf00      	nop
 8003c1c:	08004728 	.word	0x08004728
 8003c20:	ffff0001 	.word	0xffff0001

08003c24 <_fwalk_reent>:
 8003c24:	e92d 43f8 	stmdb	sp!, {r3, r4, r5, r6, r7, r8, r9, lr}
 8003c28:	4680      	mov	r8, r0
 8003c2a:	4689      	mov	r9, r1
 8003c2c:	f100 0448 	add.w	r4, r0, #72	; 0x48
 8003c30:	2600      	movs	r6, #0
 8003c32:	b914      	cbnz	r4, 8003c3a <_fwalk_reent+0x16>
 8003c34:	4630      	mov	r0, r6
 8003c36:	e8bd 83f8 	ldmia.w	sp!, {r3, r4, r5, r6, r7, r8, r9, pc}
 8003c3a:	e9d4 7501 	ldrd	r7, r5, [r4, #4]
 8003c3e:	3f01      	subs	r7, #1
 8003c40:	d501      	bpl.n	8003c46 <_fwalk_reent+0x22>
 8003c42:	6824      	ldr	r4, [r4, #0]
 8003c44:	e7f5      	b.n	8003c32 <_fwalk_reent+0xe>
 8003c46:	89ab      	ldrh	r3, [r5, #12]
 8003c48:	2b01      	cmp	r3, #1
 8003c4a:	d907      	bls.n	8003c5c <_fwalk_reent+0x38>
 8003c4c:	f9b5 300e 	ldrsh.w	r3, [r5, #14]
 8003c50:	3301      	adds	r3, #1
 8003c52:	d003      	beq.n	8003c5c <_fwalk_reent+0x38>
 8003c54:	4629      	mov	r1, r5
 8003c56:	4640      	mov	r0, r8
 8003c58:	47c8      	blx	r9
 8003c5a:	4306      	orrs	r6, r0
 8003c5c:	3568      	adds	r5, #104	; 0x68
 8003c5e:	e7ee      	b.n	8003c3e <_fwalk_reent+0x1a>

08003c60 <__swhatbuf_r>:
 8003c60:	b570      	push	{r4, r5, r6, lr}
 8003c62:	460e      	mov	r6, r1
 8003c64:	f9b1 100e 	ldrsh.w	r1, [r1, #14]
 8003c68:	2900      	cmp	r1, #0
 8003c6a:	b096      	sub	sp, #88	; 0x58
 8003c6c:	4614      	mov	r4, r2
 8003c6e:	461d      	mov	r5, r3
 8003c70:	da07      	bge.n	8003c82 <__swhatbuf_r+0x22>
 8003c72:	2300      	movs	r3, #0
 8003c74:	602b      	str	r3, [r5, #0]
 8003c76:	89b3      	ldrh	r3, [r6, #12]
 8003c78:	061a      	lsls	r2, r3, #24
 8003c7a:	d410      	bmi.n	8003c9e <__swhatbuf_r+0x3e>
 8003c7c:	f44f 6380 	mov.w	r3, #1024	; 0x400
 8003c80:	e00e      	b.n	8003ca0 <__swhatbuf_r+0x40>
 8003c82:	466a      	mov	r2, sp
 8003c84:	f000 fc36 	bl	80044f4 <_fstat_r>
 8003c88:	2800      	cmp	r0, #0
 8003c8a:	dbf2      	blt.n	8003c72 <__swhatbuf_r+0x12>
 8003c8c:	9a01      	ldr	r2, [sp, #4]
 8003c8e:	f402 4270 	and.w	r2, r2, #61440	; 0xf000
 8003c92:	f5a2 5300 	sub.w	r3, r2, #8192	; 0x2000
 8003c96:	425a      	negs	r2, r3
 8003c98:	415a      	adcs	r2, r3
 8003c9a:	602a      	str	r2, [r5, #0]
 8003c9c:	e7ee      	b.n	8003c7c <__swhatbuf_r+0x1c>
 8003c9e:	2340      	movs	r3, #64	; 0x40
 8003ca0:	2000      	movs	r0, #0
 8003ca2:	6023      	str	r3, [r4, #0]
 8003ca4:	b016      	add	sp, #88	; 0x58
 8003ca6:	bd70      	pop	{r4, r5, r6, pc}

08003ca8 <__smakebuf_r>:
 8003ca8:	898b      	ldrh	r3, [r1, #12]
 8003caa:	b573      	push	{r0, r1, r4, r5, r6, lr}
 8003cac:	079d      	lsls	r5, r3, #30
 8003cae:	4606      	mov	r6, r0
 8003cb0:	460c      	mov	r4, r1
 8003cb2:	d507      	bpl.n	8003cc4 <__smakebuf_r+0x1c>
 8003cb4:	f104 0347 	add.w	r3, r4, #71	; 0x47
 8003cb8:	6023      	str	r3, [r4, #0]
 8003cba:	6123      	str	r3, [r4, #16]
 8003cbc:	2301      	movs	r3, #1
 8003cbe:	6163      	str	r3, [r4, #20]
 8003cc0:	b002      	add	sp, #8
 8003cc2:	bd70      	pop	{r4, r5, r6, pc}
 8003cc4:	ab01      	add	r3, sp, #4
 8003cc6:	466a      	mov	r2, sp
 8003cc8:	f7ff ffca 	bl	8003c60 <__swhatbuf_r>
 8003ccc:	9900      	ldr	r1, [sp, #0]
 8003cce:	4605      	mov	r5, r0
 8003cd0:	4630      	mov	r0, r6
 8003cd2:	f000 f877 	bl	8003dc4 <_malloc_r>
 8003cd6:	b948      	cbnz	r0, 8003cec <__smakebuf_r+0x44>
 8003cd8:	f9b4 300c 	ldrsh.w	r3, [r4, #12]
 8003cdc:	059a      	lsls	r2, r3, #22
 8003cde:	d4ef      	bmi.n	8003cc0 <__smakebuf_r+0x18>
 8003ce0:	f023 0303 	bic.w	r3, r3, #3
 8003ce4:	f043 0302 	orr.w	r3, r3, #2
 8003ce8:	81a3      	strh	r3, [r4, #12]
 8003cea:	e7e3      	b.n	8003cb4 <__smakebuf_r+0xc>
 8003cec:	4b0d      	ldr	r3, [pc, #52]	; (8003d24 <__smakebuf_r+0x7c>)
 8003cee:	62b3      	str	r3, [r6, #40]	; 0x28
 8003cf0:	89a3      	ldrh	r3, [r4, #12]
 8003cf2:	6020      	str	r0, [r4, #0]
 8003cf4:	f043 0380 	orr.w	r3, r3, #128	; 0x80
 8003cf8:	81a3      	strh	r3, [r4, #12]
 8003cfa:	9b00      	ldr	r3, [sp, #0]
 8003cfc:	6163      	str	r3, [r4, #20]
 8003cfe:	9b01      	ldr	r3, [sp, #4]
 8003d00:	6120      	str	r0, [r4, #16]
 8003d02:	b15b      	cbz	r3, 8003d1c <__smakebuf_r+0x74>
 8003d04:	f9b4 100e 	ldrsh.w	r1, [r4, #14]
 8003d08:	4630      	mov	r0, r6
 8003d0a:	f000 fc05 	bl	8004518 <_isatty_r>
 8003d0e:	b128      	cbz	r0, 8003d1c <__smakebuf_r+0x74>
 8003d10:	89a3      	ldrh	r3, [r4, #12]
 8003d12:	f023 0303 	bic.w	r3, r3, #3
 8003d16:	f043 0301 	orr.w	r3, r3, #1
 8003d1a:	81a3      	strh	r3, [r4, #12]
 8003d1c:	89a3      	ldrh	r3, [r4, #12]
 8003d1e:	431d      	orrs	r5, r3
 8003d20:	81a5      	strh	r5, [r4, #12]
 8003d22:	e7cd      	b.n	8003cc0 <__smakebuf_r+0x18>
 8003d24:	08003b15 	.word	0x08003b15

08003d28 <_free_r>:
 8003d28:	b538      	push	{r3, r4, r5, lr}
 8003d2a:	4605      	mov	r5, r0
 8003d2c:	2900      	cmp	r1, #0
 8003d2e:	d045      	beq.n	8003dbc <_free_r+0x94>
 8003d30:	f851 3c04 	ldr.w	r3, [r1, #-4]
 8003d34:	1f0c      	subs	r4, r1, #4
 8003d36:	2b00      	cmp	r3, #0
 8003d38:	bfb8      	it	lt
 8003d3a:	18e4      	addlt	r4, r4, r3
 8003d3c:	f000 fc0e 	bl	800455c <__malloc_lock>
 8003d40:	4a1f      	ldr	r2, [pc, #124]	; (8003dc0 <_free_r+0x98>)
 8003d42:	6813      	ldr	r3, [r2, #0]
 8003d44:	4610      	mov	r0, r2
 8003d46:	b933      	cbnz	r3, 8003d56 <_free_r+0x2e>
 8003d48:	6063      	str	r3, [r4, #4]
 8003d4a:	6014      	str	r4, [r2, #0]
 8003d4c:	4628      	mov	r0, r5
 8003d4e:	e8bd 4038 	ldmia.w	sp!, {r3, r4, r5, lr}
 8003d52:	f000 bc04 	b.w	800455e <__malloc_unlock>
 8003d56:	42a3      	cmp	r3, r4
 8003d58:	d90c      	bls.n	8003d74 <_free_r+0x4c>
 8003d5a:	6821      	ldr	r1, [r4, #0]
 8003d5c:	1862      	adds	r2, r4, r1
 8003d5e:	4293      	cmp	r3, r2
 8003d60:	bf04      	itt	eq
 8003d62:	681a      	ldreq	r2, [r3, #0]
 8003d64:	685b      	ldreq	r3, [r3, #4]
 8003d66:	6063      	str	r3, [r4, #4]
 8003d68:	bf04      	itt	eq
 8003d6a:	1852      	addeq	r2, r2, r1
 8003d6c:	6022      	streq	r2, [r4, #0]
 8003d6e:	6004      	str	r4, [r0, #0]
 8003d70:	e7ec      	b.n	8003d4c <_free_r+0x24>
 8003d72:	4613      	mov	r3, r2
 8003d74:	685a      	ldr	r2, [r3, #4]
 8003d76:	b10a      	cbz	r2, 8003d7c <_free_r+0x54>
 8003d78:	42a2      	cmp	r2, r4
 8003d7a:	d9fa      	bls.n	8003d72 <_free_r+0x4a>
 8003d7c:	6819      	ldr	r1, [r3, #0]
 8003d7e:	1858      	adds	r0, r3, r1
 8003d80:	42a0      	cmp	r0, r4
 8003d82:	d10b      	bne.n	8003d9c <_free_r+0x74>
 8003d84:	6820      	ldr	r0, [r4, #0]
 8003d86:	4401      	add	r1, r0
 8003d88:	1858      	adds	r0, r3, r1
 8003d8a:	4282      	cmp	r2, r0
 8003d8c:	6019      	str	r1, [r3, #0]
 8003d8e:	d1dd      	bne.n	8003d4c <_free_r+0x24>
 8003d90:	6810      	ldr	r0, [r2, #0]
 8003d92:	6852      	ldr	r2, [r2, #4]
 8003d94:	605a      	str	r2, [r3, #4]
 8003d96:	4401      	add	r1, r0
 8003d98:	6019      	str	r1, [r3, #0]
 8003d9a:	e7d7      	b.n	8003d4c <_free_r+0x24>
 8003d9c:	d902      	bls.n	8003da4 <_free_r+0x7c>
 8003d9e:	230c      	movs	r3, #12
 8003da0:	602b      	str	r3, [r5, #0]
 8003da2:	e7d3      	b.n	8003d4c <_free_r+0x24>
 8003da4:	6820      	ldr	r0, [r4, #0]
 8003da6:	1821      	adds	r1, r4, r0
 8003da8:	428a      	cmp	r2, r1
 8003daa:	bf04      	itt	eq
 8003dac:	6811      	ldreq	r1, [r2, #0]
 8003dae:	6852      	ldreq	r2, [r2, #4]
 8003db0:	6062      	str	r2, [r4, #4]
 8003db2:	bf04      	itt	eq
 8003db4:	1809      	addeq	r1, r1, r0
 8003db6:	6021      	streq	r1, [r4, #0]
 8003db8:	605c      	str	r4, [r3, #4]
 8003dba:	e7c7      	b.n	8003d4c <_free_r+0x24>
 8003dbc:	bd38      	pop	{r3, r4, r5, pc}
 8003dbe:	bf00      	nop
 8003dc0:	20004050 	.word	0x20004050

08003dc4 <_malloc_r>:
 8003dc4:	b570      	push	{r4, r5, r6, lr}
 8003dc6:	1ccd      	adds	r5, r1, #3
 8003dc8:	f025 0503 	bic.w	r5, r5, #3
 8003dcc:	3508      	adds	r5, #8
 8003dce:	2d0c      	cmp	r5, #12
 8003dd0:	bf38      	it	cc
 8003dd2:	250c      	movcc	r5, #12
 8003dd4:	2d00      	cmp	r5, #0
 8003dd6:	4606      	mov	r6, r0
 8003dd8:	db01      	blt.n	8003dde <_malloc_r+0x1a>
 8003dda:	42a9      	cmp	r1, r5
 8003ddc:	d903      	bls.n	8003de6 <_malloc_r+0x22>
 8003dde:	230c      	movs	r3, #12
 8003de0:	6033      	str	r3, [r6, #0]
 8003de2:	2000      	movs	r0, #0
 8003de4:	bd70      	pop	{r4, r5, r6, pc}
 8003de6:	f000 fbb9 	bl	800455c <__malloc_lock>
 8003dea:	4a21      	ldr	r2, [pc, #132]	; (8003e70 <_malloc_r+0xac>)
 8003dec:	6814      	ldr	r4, [r2, #0]
 8003dee:	4621      	mov	r1, r4
 8003df0:	b991      	cbnz	r1, 8003e18 <_malloc_r+0x54>
 8003df2:	4c20      	ldr	r4, [pc, #128]	; (8003e74 <_malloc_r+0xb0>)
 8003df4:	6823      	ldr	r3, [r4, #0]
 8003df6:	b91b      	cbnz	r3, 8003e00 <_malloc_r+0x3c>
 8003df8:	4630      	mov	r0, r6
 8003dfa:	f000 fb05 	bl	8004408 <_sbrk_r>
 8003dfe:	6020      	str	r0, [r4, #0]
 8003e00:	4629      	mov	r1, r5
 8003e02:	4630      	mov	r0, r6
 8003e04:	f000 fb00 	bl	8004408 <_sbrk_r>
 8003e08:	1c43      	adds	r3, r0, #1
 8003e0a:	d124      	bne.n	8003e56 <_malloc_r+0x92>
 8003e0c:	230c      	movs	r3, #12
 8003e0e:	6033      	str	r3, [r6, #0]
 8003e10:	4630      	mov	r0, r6
 8003e12:	f000 fba4 	bl	800455e <__malloc_unlock>
 8003e16:	e7e4      	b.n	8003de2 <_malloc_r+0x1e>
 8003e18:	680b      	ldr	r3, [r1, #0]
 8003e1a:	1b5b      	subs	r3, r3, r5
 8003e1c:	d418      	bmi.n	8003e50 <_malloc_r+0x8c>
 8003e1e:	2b0b      	cmp	r3, #11
 8003e20:	d90f      	bls.n	8003e42 <_malloc_r+0x7e>
 8003e22:	600b      	str	r3, [r1, #0]
 8003e24:	50cd      	str	r5, [r1, r3]
 8003e26:	18cc      	adds	r4, r1, r3
 8003e28:	4630      	mov	r0, r6
 8003e2a:	f000 fb98 	bl	800455e <__malloc_unlock>
 8003e2e:	f104 000b 	add.w	r0, r4, #11
 8003e32:	1d23      	adds	r3, r4, #4
 8003e34:	f020 0007 	bic.w	r0, r0, #7
 8003e38:	1ac3      	subs	r3, r0, r3
 8003e3a:	d0d3      	beq.n	8003de4 <_malloc_r+0x20>
 8003e3c:	425a      	negs	r2, r3
 8003e3e:	50e2      	str	r2, [r4, r3]
 8003e40:	e7d0      	b.n	8003de4 <_malloc_r+0x20>
 8003e42:	428c      	cmp	r4, r1
 8003e44:	684b      	ldr	r3, [r1, #4]
 8003e46:	bf16      	itet	ne
 8003e48:	6063      	strne	r3, [r4, #4]
 8003e4a:	6013      	streq	r3, [r2, #0]
 8003e4c:	460c      	movne	r4, r1
 8003e4e:	e7eb      	b.n	8003e28 <_malloc_r+0x64>
 8003e50:	460c      	mov	r4, r1
 8003e52:	6849      	ldr	r1, [r1, #4]
 8003e54:	e7cc      	b.n	8003df0 <_malloc_r+0x2c>
 8003e56:	1cc4      	adds	r4, r0, #3
 8003e58:	f024 0403 	bic.w	r4, r4, #3
 8003e5c:	42a0      	cmp	r0, r4
 8003e5e:	d005      	beq.n	8003e6c <_malloc_r+0xa8>
 8003e60:	1a21      	subs	r1, r4, r0
 8003e62:	4630      	mov	r0, r6
 8003e64:	f000 fad0 	bl	8004408 <_sbrk_r>
 8003e68:	3001      	adds	r0, #1
 8003e6a:	d0cf      	beq.n	8003e0c <_malloc_r+0x48>
 8003e6c:	6025      	str	r5, [r4, #0]
 8003e6e:	e7db      	b.n	8003e28 <_malloc_r+0x64>
 8003e70:	20004050 	.word	0x20004050
 8003e74:	20004054 	.word	0x20004054

08003e78 <__sfputc_r>:
 8003e78:	6893      	ldr	r3, [r2, #8]
 8003e7a:	3b01      	subs	r3, #1
 8003e7c:	2b00      	cmp	r3, #0
 8003e7e:	b410      	push	{r4}
 8003e80:	6093      	str	r3, [r2, #8]
 8003e82:	da08      	bge.n	8003e96 <__sfputc_r+0x1e>
 8003e84:	6994      	ldr	r4, [r2, #24]
 8003e86:	42a3      	cmp	r3, r4
 8003e88:	db01      	blt.n	8003e8e <__sfputc_r+0x16>
 8003e8a:	290a      	cmp	r1, #10
 8003e8c:	d103      	bne.n	8003e96 <__sfputc_r+0x1e>
 8003e8e:	f85d 4b04 	ldr.w	r4, [sp], #4
 8003e92:	f7ff bcab 	b.w	80037ec <__swbuf_r>
 8003e96:	6813      	ldr	r3, [r2, #0]
 8003e98:	1c58      	adds	r0, r3, #1
 8003e9a:	6010      	str	r0, [r2, #0]
 8003e9c:	7019      	strb	r1, [r3, #0]
 8003e9e:	4608      	mov	r0, r1
 8003ea0:	f85d 4b04 	ldr.w	r4, [sp], #4
 8003ea4:	4770      	bx	lr

08003ea6 <__sfputs_r>:
 8003ea6:	b5f8      	push	{r3, r4, r5, r6, r7, lr}
 8003ea8:	4606      	mov	r6, r0
 8003eaa:	460f      	mov	r7, r1
 8003eac:	4614      	mov	r4, r2
 8003eae:	18d5      	adds	r5, r2, r3
 8003eb0:	42ac      	cmp	r4, r5
 8003eb2:	d101      	bne.n	8003eb8 <__sfputs_r+0x12>
 8003eb4:	2000      	movs	r0, #0
 8003eb6:	e007      	b.n	8003ec8 <__sfputs_r+0x22>
 8003eb8:	463a      	mov	r2, r7
 8003eba:	f814 1b01 	ldrb.w	r1, [r4], #1
 8003ebe:	4630      	mov	r0, r6
 8003ec0:	f7ff ffda 	bl	8003e78 <__sfputc_r>
 8003ec4:	1c43      	adds	r3, r0, #1
 8003ec6:	d1f3      	bne.n	8003eb0 <__sfputs_r+0xa>
 8003ec8:	bdf8      	pop	{r3, r4, r5, r6, r7, pc}
	...

08003ecc <_vfiprintf_r>:
 8003ecc:	e92d 4ff0 	stmdb	sp!, {r4, r5, r6, r7, r8, r9, sl, fp, lr}
 8003ed0:	460c      	mov	r4, r1
 8003ed2:	b09d      	sub	sp, #116	; 0x74
 8003ed4:	4617      	mov	r7, r2
 8003ed6:	461d      	mov	r5, r3
 8003ed8:	4606      	mov	r6, r0
 8003eda:	b118      	cbz	r0, 8003ee4 <_vfiprintf_r+0x18>
 8003edc:	6983      	ldr	r3, [r0, #24]
 8003ede:	b90b      	cbnz	r3, 8003ee4 <_vfiprintf_r+0x18>
 8003ee0:	f7ff fe34 	bl	8003b4c <__sinit>
 8003ee4:	4b7c      	ldr	r3, [pc, #496]	; (80040d8 <_vfiprintf_r+0x20c>)
 8003ee6:	429c      	cmp	r4, r3
 8003ee8:	d158      	bne.n	8003f9c <_vfiprintf_r+0xd0>
 8003eea:	6874      	ldr	r4, [r6, #4]
 8003eec:	89a3      	ldrh	r3, [r4, #12]
 8003eee:	0718      	lsls	r0, r3, #28
 8003ef0:	d55e      	bpl.n	8003fb0 <_vfiprintf_r+0xe4>
 8003ef2:	6923      	ldr	r3, [r4, #16]
 8003ef4:	2b00      	cmp	r3, #0
 8003ef6:	d05b      	beq.n	8003fb0 <_vfiprintf_r+0xe4>
 8003ef8:	2300      	movs	r3, #0
 8003efa:	9309      	str	r3, [sp, #36]	; 0x24
 8003efc:	2320      	movs	r3, #32
 8003efe:	f88d 3029 	strb.w	r3, [sp, #41]	; 0x29
 8003f02:	2330      	movs	r3, #48	; 0x30
 8003f04:	f88d 302a 	strb.w	r3, [sp, #42]	; 0x2a
 8003f08:	9503      	str	r5, [sp, #12]
 8003f0a:	f04f 0b01 	mov.w	fp, #1
 8003f0e:	46b8      	mov	r8, r7
 8003f10:	4645      	mov	r5, r8
 8003f12:	f815 3b01 	ldrb.w	r3, [r5], #1
 8003f16:	b10b      	cbz	r3, 8003f1c <_vfiprintf_r+0x50>
 8003f18:	2b25      	cmp	r3, #37	; 0x25
 8003f1a:	d154      	bne.n	8003fc6 <_vfiprintf_r+0xfa>
 8003f1c:	ebb8 0a07 	subs.w	sl, r8, r7
 8003f20:	d00b      	beq.n	8003f3a <_vfiprintf_r+0x6e>
 8003f22:	4653      	mov	r3, sl
 8003f24:	463a      	mov	r2, r7
 8003f26:	4621      	mov	r1, r4
 8003f28:	4630      	mov	r0, r6
 8003f2a:	f7ff ffbc 	bl	8003ea6 <__sfputs_r>
 8003f2e:	3001      	adds	r0, #1
 8003f30:	f000 80c2 	beq.w	80040b8 <_vfiprintf_r+0x1ec>
 8003f34:	9b09      	ldr	r3, [sp, #36]	; 0x24
 8003f36:	4453      	add	r3, sl
 8003f38:	9309      	str	r3, [sp, #36]	; 0x24
 8003f3a:	f898 3000 	ldrb.w	r3, [r8]
 8003f3e:	2b00      	cmp	r3, #0
 8003f40:	f000 80ba 	beq.w	80040b8 <_vfiprintf_r+0x1ec>
 8003f44:	2300      	movs	r3, #0
 8003f46:	f04f 32ff 	mov.w	r2, #4294967295
 8003f4a:	e9cd 2305 	strd	r2, r3, [sp, #20]
 8003f4e:	9304      	str	r3, [sp, #16]
 8003f50:	9307      	str	r3, [sp, #28]
 8003f52:	f88d 3053 	strb.w	r3, [sp, #83]	; 0x53
 8003f56:	931a      	str	r3, [sp, #104]	; 0x68
 8003f58:	46a8      	mov	r8, r5
 8003f5a:	2205      	movs	r2, #5
 8003f5c:	f818 1b01 	ldrb.w	r1, [r8], #1
 8003f60:	485e      	ldr	r0, [pc, #376]	; (80040dc <_vfiprintf_r+0x210>)
 8003f62:	f7fc f945 	bl	80001f0 <memchr>
 8003f66:	9b04      	ldr	r3, [sp, #16]
 8003f68:	bb78      	cbnz	r0, 8003fca <_vfiprintf_r+0xfe>
 8003f6a:	06d9      	lsls	r1, r3, #27
 8003f6c:	bf44      	itt	mi
 8003f6e:	2220      	movmi	r2, #32
 8003f70:	f88d 2053 	strbmi.w	r2, [sp, #83]	; 0x53
 8003f74:	071a      	lsls	r2, r3, #28
 8003f76:	bf44      	itt	mi
 8003f78:	222b      	movmi	r2, #43	; 0x2b
 8003f7a:	f88d 2053 	strbmi.w	r2, [sp, #83]	; 0x53
 8003f7e:	782a      	ldrb	r2, [r5, #0]
 8003f80:	2a2a      	cmp	r2, #42	; 0x2a
 8003f82:	d02a      	beq.n	8003fda <_vfiprintf_r+0x10e>
 8003f84:	9a07      	ldr	r2, [sp, #28]
 8003f86:	46a8      	mov	r8, r5
 8003f88:	2000      	movs	r0, #0
 8003f8a:	250a      	movs	r5, #10
 8003f8c:	4641      	mov	r1, r8
 8003f8e:	f811 3b01 	ldrb.w	r3, [r1], #1
 8003f92:	3b30      	subs	r3, #48	; 0x30
 8003f94:	2b09      	cmp	r3, #9
 8003f96:	d969      	bls.n	800406c <_vfiprintf_r+0x1a0>
 8003f98:	b360      	cbz	r0, 8003ff4 <_vfiprintf_r+0x128>
 8003f9a:	e024      	b.n	8003fe6 <_vfiprintf_r+0x11a>
 8003f9c:	4b50      	ldr	r3, [pc, #320]	; (80040e0 <_vfiprintf_r+0x214>)
 8003f9e:	429c      	cmp	r4, r3
 8003fa0:	d101      	bne.n	8003fa6 <_vfiprintf_r+0xda>
 8003fa2:	68b4      	ldr	r4, [r6, #8]
 8003fa4:	e7a2      	b.n	8003eec <_vfiprintf_r+0x20>
 8003fa6:	4b4f      	ldr	r3, [pc, #316]	; (80040e4 <_vfiprintf_r+0x218>)
 8003fa8:	429c      	cmp	r4, r3
 8003faa:	bf08      	it	eq
 8003fac:	68f4      	ldreq	r4, [r6, #12]
 8003fae:	e79d      	b.n	8003eec <_vfiprintf_r+0x20>
 8003fb0:	4621      	mov	r1, r4
 8003fb2:	4630      	mov	r0, r6
 8003fb4:	f7ff fc6c 	bl	8003890 <__swsetup_r>
 8003fb8:	2800      	cmp	r0, #0
 8003fba:	d09d      	beq.n	8003ef8 <_vfiprintf_r+0x2c>
 8003fbc:	f04f 30ff 	mov.w	r0, #4294967295
 8003fc0:	b01d      	add	sp, #116	; 0x74
 8003fc2:	e8bd 8ff0 	ldmia.w	sp!, {r4, r5, r6, r7, r8, r9, sl, fp, pc}
 8003fc6:	46a8      	mov	r8, r5
 8003fc8:	e7a2      	b.n	8003f10 <_vfiprintf_r+0x44>
 8003fca:	4a44      	ldr	r2, [pc, #272]	; (80040dc <_vfiprintf_r+0x210>)
 8003fcc:	1a80      	subs	r0, r0, r2
 8003fce:	fa0b f000 	lsl.w	r0, fp, r0
 8003fd2:	4318      	orrs	r0, r3
 8003fd4:	9004      	str	r0, [sp, #16]
 8003fd6:	4645      	mov	r5, r8
 8003fd8:	e7be      	b.n	8003f58 <_vfiprintf_r+0x8c>
 8003fda:	9a03      	ldr	r2, [sp, #12]
 8003fdc:	1d11      	adds	r1, r2, #4
 8003fde:	6812      	ldr	r2, [r2, #0]
 8003fe0:	9103      	str	r1, [sp, #12]
 8003fe2:	2a00      	cmp	r2, #0
 8003fe4:	db01      	blt.n	8003fea <_vfiprintf_r+0x11e>
 8003fe6:	9207      	str	r2, [sp, #28]
 8003fe8:	e004      	b.n	8003ff4 <_vfiprintf_r+0x128>
 8003fea:	4252      	negs	r2, r2
 8003fec:	f043 0302 	orr.w	r3, r3, #2
 8003ff0:	9207      	str	r2, [sp, #28]
 8003ff2:	9304      	str	r3, [sp, #16]
 8003ff4:	f898 3000 	ldrb.w	r3, [r8]
 8003ff8:	2b2e      	cmp	r3, #46	; 0x2e
 8003ffa:	d10e      	bne.n	800401a <_vfiprintf_r+0x14e>
 8003ffc:	f898 3001 	ldrb.w	r3, [r8, #1]
 8004000:	2b2a      	cmp	r3, #42	; 0x2a
 8004002:	d138      	bne.n	8004076 <_vfiprintf_r+0x1aa>
 8004004:	9b03      	ldr	r3, [sp, #12]
 8004006:	1d1a      	adds	r2, r3, #4
 8004008:	681b      	ldr	r3, [r3, #0]
 800400a:	9203      	str	r2, [sp, #12]
 800400c:	2b00      	cmp	r3, #0
 800400e:	bfb8      	it	lt
 8004010:	f04f 33ff 	movlt.w	r3, #4294967295
 8004014:	f108 0802 	add.w	r8, r8, #2
 8004018:	9305      	str	r3, [sp, #20]
 800401a:	4d33      	ldr	r5, [pc, #204]	; (80040e8 <_vfiprintf_r+0x21c>)
 800401c:	f898 1000 	ldrb.w	r1, [r8]
 8004020:	2203      	movs	r2, #3
 8004022:	4628      	mov	r0, r5
 8004024:	f7fc f8e4 	bl	80001f0 <memchr>
 8004028:	b140      	cbz	r0, 800403c <_vfiprintf_r+0x170>
 800402a:	2340      	movs	r3, #64	; 0x40
 800402c:	1b40      	subs	r0, r0, r5
 800402e:	fa03 f000 	lsl.w	r0, r3, r0
 8004032:	9b04      	ldr	r3, [sp, #16]
 8004034:	4303      	orrs	r3, r0
 8004036:	f108 0801 	add.w	r8, r8, #1
 800403a:	9304      	str	r3, [sp, #16]
 800403c:	f898 1000 	ldrb.w	r1, [r8]
 8004040:	482a      	ldr	r0, [pc, #168]	; (80040ec <_vfiprintf_r+0x220>)
 8004042:	f88d 1028 	strb.w	r1, [sp, #40]	; 0x28
 8004046:	2206      	movs	r2, #6
 8004048:	f108 0701 	add.w	r7, r8, #1
 800404c:	f7fc f8d0 	bl	80001f0 <memchr>
 8004050:	2800      	cmp	r0, #0
 8004052:	d037      	beq.n	80040c4 <_vfiprintf_r+0x1f8>
 8004054:	4b26      	ldr	r3, [pc, #152]	; (80040f0 <_vfiprintf_r+0x224>)
 8004056:	bb1b      	cbnz	r3, 80040a0 <_vfiprintf_r+0x1d4>
 8004058:	9b03      	ldr	r3, [sp, #12]
 800405a:	3307      	adds	r3, #7
 800405c:	f023 0307 	bic.w	r3, r3, #7
 8004060:	3308      	adds	r3, #8
 8004062:	9303      	str	r3, [sp, #12]
 8004064:	9b09      	ldr	r3, [sp, #36]	; 0x24
 8004066:	444b      	add	r3, r9
 8004068:	9309      	str	r3, [sp, #36]	; 0x24
 800406a:	e750      	b.n	8003f0e <_vfiprintf_r+0x42>
 800406c:	fb05 3202 	mla	r2, r5, r2, r3
 8004070:	2001      	movs	r0, #1
 8004072:	4688      	mov	r8, r1
 8004074:	e78a      	b.n	8003f8c <_vfiprintf_r+0xc0>
 8004076:	2300      	movs	r3, #0
 8004078:	f108 0801 	add.w	r8, r8, #1
 800407c:	9305      	str	r3, [sp, #20]
 800407e:	4619      	mov	r1, r3
 8004080:	250a      	movs	r5, #10
 8004082:	4640      	mov	r0, r8
 8004084:	f810 2b01 	ldrb.w	r2, [r0], #1
 8004088:	3a30      	subs	r2, #48	; 0x30
 800408a:	2a09      	cmp	r2, #9
 800408c:	d903      	bls.n	8004096 <_vfiprintf_r+0x1ca>
 800408e:	2b00      	cmp	r3, #0
 8004090:	d0c3      	beq.n	800401a <_vfiprintf_r+0x14e>
 8004092:	9105      	str	r1, [sp, #20]
 8004094:	e7c1      	b.n	800401a <_vfiprintf_r+0x14e>
 8004096:	fb05 2101 	mla	r1, r5, r1, r2
 800409a:	2301      	movs	r3, #1
 800409c:	4680      	mov	r8, r0
 800409e:	e7f0      	b.n	8004082 <_vfiprintf_r+0x1b6>
 80040a0:	ab03      	add	r3, sp, #12
 80040a2:	9300      	str	r3, [sp, #0]
 80040a4:	4622      	mov	r2, r4
 80040a6:	4b13      	ldr	r3, [pc, #76]	; (80040f4 <_vfiprintf_r+0x228>)
 80040a8:	a904      	add	r1, sp, #16
 80040aa:	4630      	mov	r0, r6
 80040ac:	f3af 8000 	nop.w
 80040b0:	f1b0 3fff 	cmp.w	r0, #4294967295
 80040b4:	4681      	mov	r9, r0
 80040b6:	d1d5      	bne.n	8004064 <_vfiprintf_r+0x198>
 80040b8:	89a3      	ldrh	r3, [r4, #12]
 80040ba:	065b      	lsls	r3, r3, #25
 80040bc:	f53f af7e 	bmi.w	8003fbc <_vfiprintf_r+0xf0>
 80040c0:	9809      	ldr	r0, [sp, #36]	; 0x24
 80040c2:	e77d      	b.n	8003fc0 <_vfiprintf_r+0xf4>
 80040c4:	ab03      	add	r3, sp, #12
 80040c6:	9300      	str	r3, [sp, #0]
 80040c8:	4622      	mov	r2, r4
 80040ca:	4b0a      	ldr	r3, [pc, #40]	; (80040f4 <_vfiprintf_r+0x228>)
 80040cc:	a904      	add	r1, sp, #16
 80040ce:	4630      	mov	r0, r6
 80040d0:	f000 f888 	bl	80041e4 <_printf_i>
 80040d4:	e7ec      	b.n	80040b0 <_vfiprintf_r+0x1e4>
 80040d6:	bf00      	nop
 80040d8:	0800474c 	.word	0x0800474c
 80040dc:	0800478c 	.word	0x0800478c
 80040e0:	0800476c 	.word	0x0800476c
 80040e4:	0800472c 	.word	0x0800472c
 80040e8:	08004792 	.word	0x08004792
 80040ec:	08004796 	.word	0x08004796
 80040f0:	00000000 	.word	0x00000000
 80040f4:	08003ea7 	.word	0x08003ea7

080040f8 <_printf_common>:
 80040f8:	e92d 47f0 	stmdb	sp!, {r4, r5, r6, r7, r8, r9, sl, lr}
 80040fc:	4691      	mov	r9, r2
 80040fe:	461f      	mov	r7, r3
 8004100:	688a      	ldr	r2, [r1, #8]
 8004102:	690b      	ldr	r3, [r1, #16]
 8004104:	f8dd 8020 	ldr.w	r8, [sp, #32]
 8004108:	4293      	cmp	r3, r2
 800410a:	bfb8      	it	lt
 800410c:	4613      	movlt	r3, r2
 800410e:	f8c9 3000 	str.w	r3, [r9]
 8004112:	f891 2043 	ldrb.w	r2, [r1, #67]	; 0x43
 8004116:	4606      	mov	r6, r0
 8004118:	460c      	mov	r4, r1
 800411a:	b112      	cbz	r2, 8004122 <_printf_common+0x2a>
 800411c:	3301      	adds	r3, #1
 800411e:	f8c9 3000 	str.w	r3, [r9]
 8004122:	6823      	ldr	r3, [r4, #0]
 8004124:	0699      	lsls	r1, r3, #26
 8004126:	bf42      	ittt	mi
 8004128:	f8d9 3000 	ldrmi.w	r3, [r9]
 800412c:	3302      	addmi	r3, #2
 800412e:	f8c9 3000 	strmi.w	r3, [r9]
 8004132:	6825      	ldr	r5, [r4, #0]
 8004134:	f015 0506 	ands.w	r5, r5, #6
 8004138:	d107      	bne.n	800414a <_printf_common+0x52>
 800413a:	f104 0a19 	add.w	sl, r4, #25
 800413e:	68e3      	ldr	r3, [r4, #12]
 8004140:	f8d9 2000 	ldr.w	r2, [r9]
 8004144:	1a9b      	subs	r3, r3, r2
 8004146:	42ab      	cmp	r3, r5
 8004148:	dc28      	bgt.n	800419c <_printf_common+0xa4>
 800414a:	f894 3043 	ldrb.w	r3, [r4, #67]	; 0x43
 800414e:	6822      	ldr	r2, [r4, #0]
 8004150:	3300      	adds	r3, #0
 8004152:	bf18      	it	ne
 8004154:	2301      	movne	r3, #1
 8004156:	0692      	lsls	r2, r2, #26
 8004158:	d42d      	bmi.n	80041b6 <_printf_common+0xbe>
 800415a:	f104 0243 	add.w	r2, r4, #67	; 0x43
 800415e:	4639      	mov	r1, r7
 8004160:	4630      	mov	r0, r6
 8004162:	47c0      	blx	r8
 8004164:	3001      	adds	r0, #1
 8004166:	d020      	beq.n	80041aa <_printf_common+0xb2>
 8004168:	6823      	ldr	r3, [r4, #0]
 800416a:	68e5      	ldr	r5, [r4, #12]
 800416c:	f8d9 2000 	ldr.w	r2, [r9]
 8004170:	f003 0306 	and.w	r3, r3, #6
 8004174:	2b04      	cmp	r3, #4
 8004176:	bf08      	it	eq
 8004178:	1aad      	subeq	r5, r5, r2
 800417a:	68a3      	ldr	r3, [r4, #8]
 800417c:	6922      	ldr	r2, [r4, #16]
 800417e:	bf0c      	ite	eq
 8004180:	ea25 75e5 	biceq.w	r5, r5, r5, asr #31
 8004184:	2500      	movne	r5, #0
 8004186:	4293      	cmp	r3, r2
 8004188:	bfc4      	itt	gt
 800418a:	1a9b      	subgt	r3, r3, r2
 800418c:	18ed      	addgt	r5, r5, r3
 800418e:	f04f 0900 	mov.w	r9, #0
 8004192:	341a      	adds	r4, #26
 8004194:	454d      	cmp	r5, r9
 8004196:	d11a      	bne.n	80041ce <_printf_common+0xd6>
 8004198:	2000      	movs	r0, #0
 800419a:	e008      	b.n	80041ae <_printf_common+0xb6>
 800419c:	2301      	movs	r3, #1
 800419e:	4652      	mov	r2, sl
 80041a0:	4639      	mov	r1, r7
 80041a2:	4630      	mov	r0, r6
 80041a4:	47c0      	blx	r8
 80041a6:	3001      	adds	r0, #1
 80041a8:	d103      	bne.n	80041b2 <_printf_common+0xba>
 80041aa:	f04f 30ff 	mov.w	r0, #4294967295
 80041ae:	e8bd 87f0 	ldmia.w	sp!, {r4, r5, r6, r7, r8, r9, sl, pc}
 80041b2:	3501      	adds	r5, #1
 80041b4:	e7c3      	b.n	800413e <_printf_common+0x46>
 80041b6:	18e1      	adds	r1, r4, r3
 80041b8:	1c5a      	adds	r2, r3, #1
 80041ba:	2030      	movs	r0, #48	; 0x30
 80041bc:	f881 0043 	strb.w	r0, [r1, #67]	; 0x43
 80041c0:	4422      	add	r2, r4
 80041c2:	f894 1045 	ldrb.w	r1, [r4, #69]	; 0x45
 80041c6:	f882 1043 	strb.w	r1, [r2, #67]	; 0x43
 80041ca:	3302      	adds	r3, #2
 80041cc:	e7c5      	b.n	800415a <_printf_common+0x62>
 80041ce:	2301      	movs	r3, #1
 80041d0:	4622      	mov	r2, r4
 80041d2:	4639      	mov	r1, r7
 80041d4:	4630      	mov	r0, r6
 80041d6:	47c0      	blx	r8
 80041d8:	3001      	adds	r0, #1
 80041da:	d0e6      	beq.n	80041aa <_printf_common+0xb2>
 80041dc:	f109 0901 	add.w	r9, r9, #1
 80041e0:	e7d8      	b.n	8004194 <_printf_common+0x9c>
	...

080041e4 <_printf_i>:
 80041e4:	e92d 43f0 	stmdb	sp!, {r4, r5, r6, r7, r8, r9, lr}
 80041e8:	f101 0c43 	add.w	ip, r1, #67	; 0x43
 80041ec:	460c      	mov	r4, r1
 80041ee:	7e09      	ldrb	r1, [r1, #24]
 80041f0:	b085      	sub	sp, #20
 80041f2:	296e      	cmp	r1, #110	; 0x6e
 80041f4:	4617      	mov	r7, r2
 80041f6:	4606      	mov	r6, r0
 80041f8:	4698      	mov	r8, r3
 80041fa:	9a0c      	ldr	r2, [sp, #48]	; 0x30
 80041fc:	f000 80b3 	beq.w	8004366 <_printf_i+0x182>
 8004200:	d822      	bhi.n	8004248 <_printf_i+0x64>
 8004202:	2963      	cmp	r1, #99	; 0x63
 8004204:	d036      	beq.n	8004274 <_printf_i+0x90>
 8004206:	d80a      	bhi.n	800421e <_printf_i+0x3a>
 8004208:	2900      	cmp	r1, #0
 800420a:	f000 80b9 	beq.w	8004380 <_printf_i+0x19c>
 800420e:	2958      	cmp	r1, #88	; 0x58
 8004210:	f000 8083 	beq.w	800431a <_printf_i+0x136>
 8004214:	f104 0542 	add.w	r5, r4, #66	; 0x42
 8004218:	f884 1042 	strb.w	r1, [r4, #66]	; 0x42
 800421c:	e032      	b.n	8004284 <_printf_i+0xa0>
 800421e:	2964      	cmp	r1, #100	; 0x64
 8004220:	d001      	beq.n	8004226 <_printf_i+0x42>
 8004222:	2969      	cmp	r1, #105	; 0x69
 8004224:	d1f6      	bne.n	8004214 <_printf_i+0x30>
 8004226:	6820      	ldr	r0, [r4, #0]
 8004228:	6813      	ldr	r3, [r2, #0]
 800422a:	0605      	lsls	r5, r0, #24
 800422c:	f103 0104 	add.w	r1, r3, #4
 8004230:	d52a      	bpl.n	8004288 <_printf_i+0xa4>
 8004232:	681b      	ldr	r3, [r3, #0]
 8004234:	6011      	str	r1, [r2, #0]
 8004236:	2b00      	cmp	r3, #0
 8004238:	da03      	bge.n	8004242 <_printf_i+0x5e>
 800423a:	222d      	movs	r2, #45	; 0x2d
 800423c:	425b      	negs	r3, r3
 800423e:	f884 2043 	strb.w	r2, [r4, #67]	; 0x43
 8004242:	486f      	ldr	r0, [pc, #444]	; (8004400 <_printf_i+0x21c>)
 8004244:	220a      	movs	r2, #10
 8004246:	e039      	b.n	80042bc <_printf_i+0xd8>
 8004248:	2973      	cmp	r1, #115	; 0x73
 800424a:	f000 809d 	beq.w	8004388 <_printf_i+0x1a4>
 800424e:	d808      	bhi.n	8004262 <_printf_i+0x7e>
 8004250:	296f      	cmp	r1, #111	; 0x6f
 8004252:	d020      	beq.n	8004296 <_printf_i+0xb2>
 8004254:	2970      	cmp	r1, #112	; 0x70
 8004256:	d1dd      	bne.n	8004214 <_printf_i+0x30>
 8004258:	6823      	ldr	r3, [r4, #0]
 800425a:	f043 0320 	orr.w	r3, r3, #32
 800425e:	6023      	str	r3, [r4, #0]
 8004260:	e003      	b.n	800426a <_printf_i+0x86>
 8004262:	2975      	cmp	r1, #117	; 0x75
 8004264:	d017      	beq.n	8004296 <_printf_i+0xb2>
 8004266:	2978      	cmp	r1, #120	; 0x78
 8004268:	d1d4      	bne.n	8004214 <_printf_i+0x30>
 800426a:	2378      	movs	r3, #120	; 0x78
 800426c:	f884 3045 	strb.w	r3, [r4, #69]	; 0x45
 8004270:	4864      	ldr	r0, [pc, #400]	; (8004404 <_printf_i+0x220>)
 8004272:	e055      	b.n	8004320 <_printf_i+0x13c>
 8004274:	6813      	ldr	r3, [r2, #0]
 8004276:	1d19      	adds	r1, r3, #4
 8004278:	681b      	ldr	r3, [r3, #0]
 800427a:	6011      	str	r1, [r2, #0]
 800427c:	f104 0542 	add.w	r5, r4, #66	; 0x42
 8004280:	f884 3042 	strb.w	r3, [r4, #66]	; 0x42
 8004284:	2301      	movs	r3, #1
 8004286:	e08c      	b.n	80043a2 <_printf_i+0x1be>
 8004288:	681b      	ldr	r3, [r3, #0]
 800428a:	6011      	str	r1, [r2, #0]
 800428c:	f010 0f40 	tst.w	r0, #64	; 0x40
 8004290:	bf18      	it	ne
 8004292:	b21b      	sxthne	r3, r3
 8004294:	e7cf      	b.n	8004236 <_printf_i+0x52>
 8004296:	6813      	ldr	r3, [r2, #0]
 8004298:	6825      	ldr	r5, [r4, #0]
 800429a:	1d18      	adds	r0, r3, #4
 800429c:	6010      	str	r0, [r2, #0]
 800429e:	0628      	lsls	r0, r5, #24
 80042a0:	d501      	bpl.n	80042a6 <_printf_i+0xc2>
 80042a2:	681b      	ldr	r3, [r3, #0]
 80042a4:	e002      	b.n	80042ac <_printf_i+0xc8>
 80042a6:	0668      	lsls	r0, r5, #25
 80042a8:	d5fb      	bpl.n	80042a2 <_printf_i+0xbe>
 80042aa:	881b      	ldrh	r3, [r3, #0]
 80042ac:	4854      	ldr	r0, [pc, #336]	; (8004400 <_printf_i+0x21c>)
 80042ae:	296f      	cmp	r1, #111	; 0x6f
 80042b0:	bf14      	ite	ne
 80042b2:	220a      	movne	r2, #10
 80042b4:	2208      	moveq	r2, #8
 80042b6:	2100      	movs	r1, #0
 80042b8:	f884 1043 	strb.w	r1, [r4, #67]	; 0x43
 80042bc:	6865      	ldr	r5, [r4, #4]
 80042be:	60a5      	str	r5, [r4, #8]
 80042c0:	2d00      	cmp	r5, #0
 80042c2:	f2c0 8095 	blt.w	80043f0 <_printf_i+0x20c>
 80042c6:	6821      	ldr	r1, [r4, #0]
 80042c8:	f021 0104 	bic.w	r1, r1, #4
 80042cc:	6021      	str	r1, [r4, #0]
 80042ce:	2b00      	cmp	r3, #0
 80042d0:	d13d      	bne.n	800434e <_printf_i+0x16a>
 80042d2:	2d00      	cmp	r5, #0
 80042d4:	f040 808e 	bne.w	80043f4 <_printf_i+0x210>
 80042d8:	4665      	mov	r5, ip
 80042da:	2a08      	cmp	r2, #8
 80042dc:	d10b      	bne.n	80042f6 <_printf_i+0x112>
 80042de:	6823      	ldr	r3, [r4, #0]
 80042e0:	07db      	lsls	r3, r3, #31
 80042e2:	d508      	bpl.n	80042f6 <_printf_i+0x112>
 80042e4:	6923      	ldr	r3, [r4, #16]
 80042e6:	6862      	ldr	r2, [r4, #4]
 80042e8:	429a      	cmp	r2, r3
 80042ea:	bfde      	ittt	le
 80042ec:	2330      	movle	r3, #48	; 0x30
 80042ee:	f805 3c01 	strble.w	r3, [r5, #-1]
 80042f2:	f105 35ff 	addle.w	r5, r5, #4294967295
 80042f6:	ebac 0305 	sub.w	r3, ip, r5
 80042fa:	6123      	str	r3, [r4, #16]
 80042fc:	f8cd 8000 	str.w	r8, [sp]
 8004300:	463b      	mov	r3, r7
 8004302:	aa03      	add	r2, sp, #12
 8004304:	4621      	mov	r1, r4
 8004306:	4630      	mov	r0, r6
 8004308:	f7ff fef6 	bl	80040f8 <_printf_common>
 800430c:	3001      	adds	r0, #1
 800430e:	d14d      	bne.n	80043ac <_printf_i+0x1c8>
 8004310:	f04f 30ff 	mov.w	r0, #4294967295
 8004314:	b005      	add	sp, #20
 8004316:	e8bd 83f0 	ldmia.w	sp!, {r4, r5, r6, r7, r8, r9, pc}
 800431a:	4839      	ldr	r0, [pc, #228]	; (8004400 <_printf_i+0x21c>)
 800431c:	f884 1045 	strb.w	r1, [r4, #69]	; 0x45
 8004320:	6813      	ldr	r3, [r2, #0]
 8004322:	6821      	ldr	r1, [r4, #0]
 8004324:	1d1d      	adds	r5, r3, #4
 8004326:	681b      	ldr	r3, [r3, #0]
 8004328:	6015      	str	r5, [r2, #0]
 800432a:	060a      	lsls	r2, r1, #24
 800432c:	d50b      	bpl.n	8004346 <_printf_i+0x162>
 800432e:	07ca      	lsls	r2, r1, #31
 8004330:	bf44      	itt	mi
 8004332:	f041 0120 	orrmi.w	r1, r1, #32
 8004336:	6021      	strmi	r1, [r4, #0]
 8004338:	b91b      	cbnz	r3, 8004342 <_printf_i+0x15e>
 800433a:	6822      	ldr	r2, [r4, #0]
 800433c:	f022 0220 	bic.w	r2, r2, #32
 8004340:	6022      	str	r2, [r4, #0]
 8004342:	2210      	movs	r2, #16
 8004344:	e7b7      	b.n	80042b6 <_printf_i+0xd2>
 8004346:	064d      	lsls	r5, r1, #25
 8004348:	bf48      	it	mi
 800434a:	b29b      	uxthmi	r3, r3
 800434c:	e7ef      	b.n	800432e <_printf_i+0x14a>
 800434e:	4665      	mov	r5, ip
 8004350:	fbb3 f1f2 	udiv	r1, r3, r2
 8004354:	fb02 3311 	mls	r3, r2, r1, r3
 8004358:	5cc3      	ldrb	r3, [r0, r3]
 800435a:	f805 3d01 	strb.w	r3, [r5, #-1]!
 800435e:	460b      	mov	r3, r1
 8004360:	2900      	cmp	r1, #0
 8004362:	d1f5      	bne.n	8004350 <_printf_i+0x16c>
 8004364:	e7b9      	b.n	80042da <_printf_i+0xf6>
 8004366:	6813      	ldr	r3, [r2, #0]
 8004368:	6825      	ldr	r5, [r4, #0]
 800436a:	6961      	ldr	r1, [r4, #20]
 800436c:	1d18      	adds	r0, r3, #4
 800436e:	6010      	str	r0, [r2, #0]
 8004370:	0628      	lsls	r0, r5, #24
 8004372:	681b      	ldr	r3, [r3, #0]
 8004374:	d501      	bpl.n	800437a <_printf_i+0x196>
 8004376:	6019      	str	r1, [r3, #0]
 8004378:	e002      	b.n	8004380 <_printf_i+0x19c>
 800437a:	066a      	lsls	r2, r5, #25
 800437c:	d5fb      	bpl.n	8004376 <_printf_i+0x192>
 800437e:	8019      	strh	r1, [r3, #0]
 8004380:	2300      	movs	r3, #0
 8004382:	6123      	str	r3, [r4, #16]
 8004384:	4665      	mov	r5, ip
 8004386:	e7b9      	b.n	80042fc <_printf_i+0x118>
 8004388:	6813      	ldr	r3, [r2, #0]
 800438a:	1d19      	adds	r1, r3, #4
 800438c:	6011      	str	r1, [r2, #0]
 800438e:	681d      	ldr	r5, [r3, #0]
 8004390:	6862      	ldr	r2, [r4, #4]
 8004392:	2100      	movs	r1, #0
 8004394:	4628      	mov	r0, r5
 8004396:	f7fb ff2b 	bl	80001f0 <memchr>
 800439a:	b108      	cbz	r0, 80043a0 <_printf_i+0x1bc>
 800439c:	1b40      	subs	r0, r0, r5
 800439e:	6060      	str	r0, [r4, #4]
 80043a0:	6863      	ldr	r3, [r4, #4]
 80043a2:	6123      	str	r3, [r4, #16]
 80043a4:	2300      	movs	r3, #0
 80043a6:	f884 3043 	strb.w	r3, [r4, #67]	; 0x43
 80043aa:	e7a7      	b.n	80042fc <_printf_i+0x118>
 80043ac:	6923      	ldr	r3, [r4, #16]
 80043ae:	462a      	mov	r2, r5
 80043b0:	4639      	mov	r1, r7
 80043b2:	4630      	mov	r0, r6
 80043b4:	47c0      	blx	r8
 80043b6:	3001      	adds	r0, #1
 80043b8:	d0aa      	beq.n	8004310 <_printf_i+0x12c>
 80043ba:	6823      	ldr	r3, [r4, #0]
 80043bc:	079b      	lsls	r3, r3, #30
 80043be:	d413      	bmi.n	80043e8 <_printf_i+0x204>
 80043c0:	68e0      	ldr	r0, [r4, #12]
 80043c2:	9b03      	ldr	r3, [sp, #12]
 80043c4:	4298      	cmp	r0, r3
 80043c6:	bfb8      	it	lt
 80043c8:	4618      	movlt	r0, r3
 80043ca:	e7a3      	b.n	8004314 <_printf_i+0x130>
 80043cc:	2301      	movs	r3, #1
 80043ce:	464a      	mov	r2, r9
 80043d0:	4639      	mov	r1, r7
 80043d2:	4630      	mov	r0, r6
 80043d4:	47c0      	blx	r8
 80043d6:	3001      	adds	r0, #1
 80043d8:	d09a      	beq.n	8004310 <_printf_i+0x12c>
 80043da:	3501      	adds	r5, #1
 80043dc:	68e3      	ldr	r3, [r4, #12]
 80043de:	9a03      	ldr	r2, [sp, #12]
 80043e0:	1a9b      	subs	r3, r3, r2
 80043e2:	42ab      	cmp	r3, r5
 80043e4:	dcf2      	bgt.n	80043cc <_printf_i+0x1e8>
 80043e6:	e7eb      	b.n	80043c0 <_printf_i+0x1dc>
 80043e8:	2500      	movs	r5, #0
 80043ea:	f104 0919 	add.w	r9, r4, #25
 80043ee:	e7f5      	b.n	80043dc <_printf_i+0x1f8>
 80043f0:	2b00      	cmp	r3, #0
 80043f2:	d1ac      	bne.n	800434e <_printf_i+0x16a>
 80043f4:	7803      	ldrb	r3, [r0, #0]
 80043f6:	f884 3042 	strb.w	r3, [r4, #66]	; 0x42
 80043fa:	f104 0542 	add.w	r5, r4, #66	; 0x42
 80043fe:	e76c      	b.n	80042da <_printf_i+0xf6>
 8004400:	0800479d 	.word	0x0800479d
 8004404:	080047ae 	.word	0x080047ae

08004408 <_sbrk_r>:
 8004408:	b538      	push	{r3, r4, r5, lr}
 800440a:	4c06      	ldr	r4, [pc, #24]	; (8004424 <_sbrk_r+0x1c>)
 800440c:	2300      	movs	r3, #0
 800440e:	4605      	mov	r5, r0
 8004410:	4608      	mov	r0, r1
 8004412:	6023      	str	r3, [r4, #0]
 8004414:	f7fc fdfe 	bl	8001014 <_sbrk>
 8004418:	1c43      	adds	r3, r0, #1
 800441a:	d102      	bne.n	8004422 <_sbrk_r+0x1a>
 800441c:	6823      	ldr	r3, [r4, #0]
 800441e:	b103      	cbz	r3, 8004422 <_sbrk_r+0x1a>
 8004420:	602b      	str	r3, [r5, #0]
 8004422:	bd38      	pop	{r3, r4, r5, pc}
 8004424:	200041b8 	.word	0x200041b8

08004428 <__sread>:
 8004428:	b510      	push	{r4, lr}
 800442a:	460c      	mov	r4, r1
 800442c:	f9b1 100e 	ldrsh.w	r1, [r1, #14]
 8004430:	f000 f896 	bl	8004560 <_read_r>
 8004434:	2800      	cmp	r0, #0
 8004436:	bfab      	itete	ge
 8004438:	6d63      	ldrge	r3, [r4, #84]	; 0x54
 800443a:	89a3      	ldrhlt	r3, [r4, #12]
 800443c:	181b      	addge	r3, r3, r0
 800443e:	f423 5380 	biclt.w	r3, r3, #4096	; 0x1000
 8004442:	bfac      	ite	ge
 8004444:	6563      	strge	r3, [r4, #84]	; 0x54
 8004446:	81a3      	strhlt	r3, [r4, #12]
 8004448:	bd10      	pop	{r4, pc}

0800444a <__swrite>:
 800444a:	e92d 41f0 	stmdb	sp!, {r4, r5, r6, r7, r8, lr}
 800444e:	461f      	mov	r7, r3
 8004450:	898b      	ldrh	r3, [r1, #12]
 8004452:	05db      	lsls	r3, r3, #23
 8004454:	4605      	mov	r5, r0
 8004456:	460c      	mov	r4, r1
 8004458:	4616      	mov	r6, r2
 800445a:	d505      	bpl.n	8004468 <__swrite+0x1e>
 800445c:	2302      	movs	r3, #2
 800445e:	2200      	movs	r2, #0
 8004460:	f9b1 100e 	ldrsh.w	r1, [r1, #14]
 8004464:	f000 f868 	bl	8004538 <_lseek_r>
 8004468:	89a3      	ldrh	r3, [r4, #12]
 800446a:	f9b4 100e 	ldrsh.w	r1, [r4, #14]
 800446e:	f423 5380 	bic.w	r3, r3, #4096	; 0x1000
 8004472:	81a3      	strh	r3, [r4, #12]
 8004474:	4632      	mov	r2, r6
 8004476:	463b      	mov	r3, r7
 8004478:	4628      	mov	r0, r5
 800447a:	e8bd 41f0 	ldmia.w	sp!, {r4, r5, r6, r7, r8, lr}
 800447e:	f000 b817 	b.w	80044b0 <_write_r>

08004482 <__sseek>:
 8004482:	b510      	push	{r4, lr}
 8004484:	460c      	mov	r4, r1
 8004486:	f9b1 100e 	ldrsh.w	r1, [r1, #14]
 800448a:	f000 f855 	bl	8004538 <_lseek_r>
 800448e:	1c43      	adds	r3, r0, #1
 8004490:	89a3      	ldrh	r3, [r4, #12]
 8004492:	bf15      	itete	ne
 8004494:	6560      	strne	r0, [r4, #84]	; 0x54
 8004496:	f423 5380 	biceq.w	r3, r3, #4096	; 0x1000
 800449a:	f443 5380 	orrne.w	r3, r3, #4096	; 0x1000
 800449e:	81a3      	strheq	r3, [r4, #12]
 80044a0:	bf18      	it	ne
 80044a2:	81a3      	strhne	r3, [r4, #12]
 80044a4:	bd10      	pop	{r4, pc}

080044a6 <__sclose>:
 80044a6:	f9b1 100e 	ldrsh.w	r1, [r1, #14]
 80044aa:	f000 b813 	b.w	80044d4 <_close_r>
	...

080044b0 <_write_r>:
 80044b0:	b538      	push	{r3, r4, r5, lr}
 80044b2:	4c07      	ldr	r4, [pc, #28]	; (80044d0 <_write_r+0x20>)
 80044b4:	4605      	mov	r5, r0
 80044b6:	4608      	mov	r0, r1
 80044b8:	4611      	mov	r1, r2
 80044ba:	2200      	movs	r2, #0
 80044bc:	6022      	str	r2, [r4, #0]
 80044be:	461a      	mov	r2, r3
 80044c0:	f7fc fd8e 	bl	8000fe0 <_write>
 80044c4:	1c43      	adds	r3, r0, #1
 80044c6:	d102      	bne.n	80044ce <_write_r+0x1e>
 80044c8:	6823      	ldr	r3, [r4, #0]
 80044ca:	b103      	cbz	r3, 80044ce <_write_r+0x1e>
 80044cc:	602b      	str	r3, [r5, #0]
 80044ce:	bd38      	pop	{r3, r4, r5, pc}
 80044d0:	200041b8 	.word	0x200041b8

080044d4 <_close_r>:
 80044d4:	b538      	push	{r3, r4, r5, lr}
 80044d6:	4c06      	ldr	r4, [pc, #24]	; (80044f0 <_close_r+0x1c>)
 80044d8:	2300      	movs	r3, #0
 80044da:	4605      	mov	r5, r0
 80044dc:	4608      	mov	r0, r1
 80044de:	6023      	str	r3, [r4, #0]
 80044e0:	f7fc fd8c 	bl	8000ffc <_close>
 80044e4:	1c43      	adds	r3, r0, #1
 80044e6:	d102      	bne.n	80044ee <_close_r+0x1a>
 80044e8:	6823      	ldr	r3, [r4, #0]
 80044ea:	b103      	cbz	r3, 80044ee <_close_r+0x1a>
 80044ec:	602b      	str	r3, [r5, #0]
 80044ee:	bd38      	pop	{r3, r4, r5, pc}
 80044f0:	200041b8 	.word	0x200041b8

080044f4 <_fstat_r>:
 80044f4:	b538      	push	{r3, r4, r5, lr}
 80044f6:	4c07      	ldr	r4, [pc, #28]	; (8004514 <_fstat_r+0x20>)
 80044f8:	2300      	movs	r3, #0
 80044fa:	4605      	mov	r5, r0
 80044fc:	4608      	mov	r0, r1
 80044fe:	4611      	mov	r1, r2
 8004500:	6023      	str	r3, [r4, #0]
 8004502:	f7fc fd7e 	bl	8001002 <_fstat>
 8004506:	1c43      	adds	r3, r0, #1
 8004508:	d102      	bne.n	8004510 <_fstat_r+0x1c>
 800450a:	6823      	ldr	r3, [r4, #0]
 800450c:	b103      	cbz	r3, 8004510 <_fstat_r+0x1c>
 800450e:	602b      	str	r3, [r5, #0]
 8004510:	bd38      	pop	{r3, r4, r5, pc}
 8004512:	bf00      	nop
 8004514:	200041b8 	.word	0x200041b8

08004518 <_isatty_r>:
 8004518:	b538      	push	{r3, r4, r5, lr}
 800451a:	4c06      	ldr	r4, [pc, #24]	; (8004534 <_isatty_r+0x1c>)
 800451c:	2300      	movs	r3, #0
 800451e:	4605      	mov	r5, r0
 8004520:	4608      	mov	r0, r1
 8004522:	6023      	str	r3, [r4, #0]
 8004524:	f7fc fd72 	bl	800100c <_isatty>
 8004528:	1c43      	adds	r3, r0, #1
 800452a:	d102      	bne.n	8004532 <_isatty_r+0x1a>
 800452c:	6823      	ldr	r3, [r4, #0]
 800452e:	b103      	cbz	r3, 8004532 <_isatty_r+0x1a>
 8004530:	602b      	str	r3, [r5, #0]
 8004532:	bd38      	pop	{r3, r4, r5, pc}
 8004534:	200041b8 	.word	0x200041b8

08004538 <_lseek_r>:
 8004538:	b538      	push	{r3, r4, r5, lr}
 800453a:	4c07      	ldr	r4, [pc, #28]	; (8004558 <_lseek_r+0x20>)
 800453c:	4605      	mov	r5, r0
 800453e:	4608      	mov	r0, r1
 8004540:	4611      	mov	r1, r2
 8004542:	2200      	movs	r2, #0
 8004544:	6022      	str	r2, [r4, #0]
 8004546:	461a      	mov	r2, r3
 8004548:	f7fc fd62 	bl	8001010 <_lseek>
 800454c:	1c43      	adds	r3, r0, #1
 800454e:	d102      	bne.n	8004556 <_lseek_r+0x1e>
 8004550:	6823      	ldr	r3, [r4, #0]
 8004552:	b103      	cbz	r3, 8004556 <_lseek_r+0x1e>
 8004554:	602b      	str	r3, [r5, #0]
 8004556:	bd38      	pop	{r3, r4, r5, pc}
 8004558:	200041b8 	.word	0x200041b8

0800455c <__malloc_lock>:
 800455c:	4770      	bx	lr

0800455e <__malloc_unlock>:
 800455e:	4770      	bx	lr

08004560 <_read_r>:
 8004560:	b538      	push	{r3, r4, r5, lr}
 8004562:	4c07      	ldr	r4, [pc, #28]	; (8004580 <_read_r+0x20>)
 8004564:	4605      	mov	r5, r0
 8004566:	4608      	mov	r0, r1
 8004568:	4611      	mov	r1, r2
 800456a:	2200      	movs	r2, #0
 800456c:	6022      	str	r2, [r4, #0]
 800456e:	461a      	mov	r2, r3
 8004570:	f7fc fd28 	bl	8000fc4 <_read>
 8004574:	1c43      	adds	r3, r0, #1
 8004576:	d102      	bne.n	800457e <_read_r+0x1e>
 8004578:	6823      	ldr	r3, [r4, #0]
 800457a:	b103      	cbz	r3, 800457e <_read_r+0x1e>
 800457c:	602b      	str	r3, [r5, #0]
 800457e:	bd38      	pop	{r3, r4, r5, pc}
 8004580:	200041b8 	.word	0x200041b8

08004584 <_init>:
 8004584:	b5f8      	push	{r3, r4, r5, r6, r7, lr}
 8004586:	bf00      	nop
 8004588:	bcf8      	pop	{r3, r4, r5, r6, r7}
 800458a:	bc08      	pop	{r3}
 800458c:	469e      	mov	lr, r3
 800458e:	4770      	bx	lr

08004590 <_fini>:
 8004590:	b5f8      	push	{r3, r4, r5, r6, r7, lr}
 8004592:	bf00      	nop
 8004594:	bcf8      	pop	{r3, r4, r5, r6, r7}
 8004596:	bc08      	pop	{r3}
 8004598:	469e      	mov	lr, r3
 800459a:	4770      	bx	lr
